

HI-TECH Software PIC LITE Macro Assembler V9.70 build 5239 
                                                                                               Tue Jun 19 17:54:51 2012

HI-TECH Software Omniscient Code Generator (Lite mode) build 5239
     1  0000                     opt subtitle "HI-TECH Software Omniscient Code Generator (Lite mode) build 5239"
     2                           
     3                           opt pagewidth 120
     4                           
     5                           	opt lm
     6                           
     7                           	processor	16F677
     8                           clrc	macro
     9                           	bcf	3,0
    10  0000                     	endm
    11                           clrz	macro
    12                           	bcf	3,2
    13  0000                     	endm
    14                           setc	macro
    15                           	bsf	3,0
    16  0000                     	endm
    17                           setz	macro
    18                           	bsf	3,2
    19  0000                     	endm
    20                           skipc	macro
    21                           	btfss	3,0
    22  0000                     	endm
    23                           skipz	macro
    24                           	btfss	3,2
    25  0000                     	endm
    26                           skipnc	macro
    27                           	btfsc	3,0
    28  0000                     	endm
    29                           skipnz	macro
    30                           	btfsc	3,2
    31  0000                     	endm
    32  0000                     indf	equ	0
    33  0000                     indf0	equ	0
    34  0002                     pc	equ	2
    35  0002                     pcl	equ	2
    36  0003                     status	equ	3
    37  0004                     fsr	equ	4
    38  0004                     fsr0	equ	4
    39  0001                     c	equ	1
    40  0000                     z	equ	0
    41  000A                     pclath	equ	10
    42                           # 16 "D:\Amit\E-Projects\PIC Projects\CMC\iBUTTON\main.c"
    43                           	psect config,class=CONFIG,delta=2 ;#
    44                           # 16 "D:\Amit\E-Projects\PIC Projects\CMC\iBUTTON\main.c"
    45  0000' 3094               	dw 0x3FFC & 0x3FF7 & 0x3FFF & 0x3FDF & 0x3FBF & 0x3CFF & 0x3BFF & 0x37FF ;#
    46                           ;BANK0:	_main->_LockOperation
    47                           ;BANK0:	_LockOperation->_Configuration
    48                           ;BANK0:	_Configuration->_BuzzerBeep
    49                           ;BANK0:	_BuzzerBeep->_DelayMs
    50                           ;COMMON:	_Configuration->_EEPROMReadKey
    51                           ;COMMON:	_EEPROMReadKey->_ReadEEPROM
    52                           	FNCALL	_main,_PowerInit
    53                           	FNCALL	_main,_DelayMs
    54                           	FNCALL	_main,_BuzzerBeep
    55                           	FNCALL	_main,_ConfigureMasterKey
    56                           	FNCALL	_main,_WriteEEPROM
    57                           	FNCALL	_main,_ClearAllKeys
    58                           	FNCALL	_main,_ClearKey
    59                           	FNCALL	_main,_LockOperation
    60                           	FNCALL	_main,_GoToSleep
    61                           	FNCALL	_ConfigureMasterKey,_EEPROMReadKey
    62                           	FNCALL	_ConfigureMasterKey,_CRCCheck
    63                           	FNCALL	_ConfigureMasterKey,_BuzzerBeep
    64                           	FNCALL	_ConfigureMasterKey,_ReadiButton
    65                           	FNCALL	_ConfigureMasterKey,_EEPROMWriteKey
    66                           	FNCALL	_ConfigureMasterKey,_Wait_With_LED_Blink
    67                           	FNCALL	_ConfigureMasterKey,_GoToSleep
    68                           	FNCALL	_LockOperation,_ReadiButton
    69                           	FNCALL	_LockOperation,_AvailabeKey
    70                           	FNCALL	_LockOperation,_BuzzerBeep
    71                           	FNCALL	_LockOperation,_ToggleBuzzLED
    72                           	FNCALL	_LockOperation,_CheckForiButtonDisconnect
    73                           	FNCALL	_LockOperation,_DoorOpen
    74                           	FNCALL	_LockOperation,_Configuration
    75                           	FNCALL	_LockOperation,_DelayMs
    76                           	FNCALL	_LockOperation,_DoorClose
    77                           	FNCALL	_LockOperation,_InvalidKeyIndication
    78                           	FNCALL	_Configuration,_BuzzerBeep
    79                           	FNCALL	_Configuration,_Wait_With_LED_Blink
    80                           	FNCALL	_Configuration,_ReadiButton
    81                           	FNCALL	_Configuration,_AvailabeKey
    82                           	FNCALL	_Configuration,_EEPROMReadKey
    83                           	FNCALL	_Configuration,_strcmp
    84                           	FNCALL	_Configuration,_ClearKey
    85                           	FNCALL	_Configuration,_CRCCheck
    86                           	FNCALL	_Configuration,_EEPROMWriteKey
    87                           	FNCALL	_Configuration,_ClearAllKeys
    88                           	FNCALL	_Configuration,_DelayMs
    89                           	FNCALL	_Configuration,_ToggleLED
    90                           	FNCALL	_DoorOpen,_DelayMs
    91                           	FNCALL	_GoToSleep,_DelayMs
    92                           	FNCALL	_DoorClose,_DelayMs
    93                           	FNCALL	_InvalidKeyIndication,_DelayMs
    94                           	FNCALL	_InvalidKeyIndication,_ReadiButton
    95                           	FNCALL	_InvalidKeyIndication,_AvailabeKey
    96                           	FNCALL	_BuzzerBeep,_DelayMs
    97                           	FNCALL	_Wait_With_LED_Blink,_ToggleLED
    98                           	FNCALL	_Wait_With_LED_Blink,_CheckForiButtonDisconnect
    99                           	FNCALL	_ClearAllKeys,_EEPROMWriteKeyByte
   100                           	FNCALL	_EEPROMWriteKey,_WriteEEPROM
   101                           	FNCALL	_EEPROMWriteKey,_DelayMs
   102                           	FNCALL	_AvailabeKey,_EEPROMReadKey
   103                           	FNCALL	_AvailabeKey,_strcmp
   104                           	FNCALL	_ReadiButton,_InitiButton
   105                           	FNCALL	_ReadiButton,_WriteByteToiButton
   106                           	FNCALL	_ReadiButton,_ReadByteToiButton
   107                           	FNCALL	_ReadiButton,_CRCCheck
   108                           	FNCALL	_ClearKey,_EEPROMWriteKeyByte
   109                           	FNCALL	_EEPROMWriteKeyByte,_WriteEEPROM
   110                           	FNCALL	_EEPROMWriteKeyByte,_DelayMs
   111                           	FNCALL	_WriteByteToiButton,_delay_10us
   112                           	FNCALL	_EEPROMReadKey,_ReadEEPROM
   113                           	FNCALL	_CheckForiButtonDisconnect,_InitiButton
   114                           	FNCALL	_ReadByteToiButton,_delay_10us
   115                           	FNCALL	_InitiButton,_delay_10us
   116                           	FNROOT	_main
   117                           	FNCALL	intlevel1,_isr
   118                           	global	intlevel1
   119                           	FNROOT	intlevel1
   120                           	global	_CRCValue
   121                           psect	strings,class=CODE,delta=2,reloc=256
   122                           global __pstrings
   123  0000'                    __pstrings:
   124                           	global	stringdir,stringtab,__stringbase
   125  0000'                    stringtab:
   126                           ;	String table - string pointers are 2 bytes each
   127  0000' 00FE               	movwf	(btemp)&07Fh
   128  0001' 1FFE               	btfss	(btemp)&07Fh,7
   129  0002' 2808'              	goto	stringcode
   130  0003' 1383               	bcf	status,7
   131  0004' 187E               	btfsc	btemp&7Fh,0
   132  0005' 1783               	bsf	status,7
   133  0006' 0800               	movf	indf,w
   134  0007' 0008               	return
   135  0008'                    stringcode:
   136  0008' 008A               	movwf	pclath
   137  0009' 0804               	movf	fsr,w
   138  000A'                    stringdir:
   139  000A' 0082               	movwf pc
   140  000B'                    __stringbase:
   141                           psect	stringtext1,class=CODE,delta=2
   142                           global __pstringtext1
   143  0000'                    __pstringtext1:
   144                           	file	"D:\Amit\E-Projects\PIC Projects\CMC\iBUTTON\OneWire.h"
   145                           	line	5
   146  0000'                    _CRCValue:
   147  0000' 3400               	retlw	0
   148  0001' 345E               	retlw	05Eh
   149  0002' 34BC               	retlw	0BCh
   150  0003' 34E2               	retlw	0E2h
   151  0004' 3461               	retlw	061h
   152  0005' 343F               	retlw	03Fh
   153  0006' 34DD               	retlw	0DDh
   154  0007' 3483               	retlw	083h
   155  0008' 34C2               	retlw	0C2h
   156  0009' 349C               	retlw	09Ch
   157  000A' 347E               	retlw	07Eh
   158  000B' 3420               	retlw	020h
   159  000C' 34A3               	retlw	0A3h
   160  000D' 34FD               	retlw	0FDh
   161  000E' 341F               	retlw	01Fh
   162  000F' 3441               	retlw	041h
   163  0010' 349D               	retlw	09Dh
   164  0011' 34C3               	retlw	0C3h
   165  0012' 3421               	retlw	021h
   166  0013' 347F               	retlw	07Fh
   167  0014' 34FC               	retlw	0FCh
   168  0015' 34A2               	retlw	0A2h
   169  0016' 3440               	retlw	040h
   170  0017' 341E               	retlw	01Eh
   171  0018' 345F               	retlw	05Fh
   172  0019' 3401               	retlw	01h
   173  001A' 34E3               	retlw	0E3h
   174  001B' 34BD               	retlw	0BDh
   175  001C' 343E               	retlw	03Eh
   176  001D' 3460               	retlw	060h
   177  001E' 3482               	retlw	082h
   178  001F' 34DC               	retlw	0DCh
   179  0020' 3423               	retlw	023h
   180  0021' 347D               	retlw	07Dh
   181  0022' 349F               	retlw	09Fh
   182  0023' 34C1               	retlw	0C1h
   183  0024' 3442               	retlw	042h
   184  0025' 341C               	retlw	01Ch
   185  0026' 34FE               	retlw	0FEh
   186  0027' 34A0               	retlw	0A0h
   187  0028' 34E1               	retlw	0E1h
   188  0029' 34BF               	retlw	0BFh
   189  002A' 345D               	retlw	05Dh
   190  002B' 3403               	retlw	03h
   191  002C' 3480               	retlw	080h
   192  002D' 34DE               	retlw	0DEh
   193  002E' 343C               	retlw	03Ch
   194  002F' 3462               	retlw	062h
   195  0030' 34BE               	retlw	0BEh
   196  0031' 34E0               	retlw	0E0h
   197  0032' 3402               	retlw	02h
   198  0033' 345C               	retlw	05Ch
   199  0034' 34DF               	retlw	0DFh
   200  0035' 3481               	retlw	081h
   201  0036' 3463               	retlw	063h
   202  0037' 343D               	retlw	03Dh
   203  0038' 347C               	retlw	07Ch
   204  0039' 3422               	retlw	022h
   205  003A' 34C0               	retlw	0C0h
   206  003B' 349E               	retlw	09Eh
   207  003C' 341D               	retlw	01Dh
   208  003D' 3443               	retlw	043h
   209+ 003E' 34A1               	retlw	0A1h
   210+ 003F' 34FF               	retlw	0FFh
   211+ 0040' 3446               	retlw	046h
   212+ 0041' 3418               	retlw	018h
   213+ 0042' 34FA               	retlw	0FAh
   214  0043' 34A4               	retlw	0A4h
   215  0044' 3427               	retlw	027h
   216+ 0045' 3479               	retlw	079h
   217+ 0046' 349B               	retlw	09Bh
   218  0047' 34C5               	retlw	0C5h
   219+ 0048' 3484               	retlw	084h
   220  0049' 34DA               	retlw	0DAh
   221+ 004A' 3438               	retlw	038h
   222  004B' 3466               	retlw	066h
   223+ 004C' 34E5               	retlw	0E5h
   224+ 004D' 34BB               	retlw	0BBh
   225+ 004E' 3459               	retlw	059h
   226+ 004F' 3407               	retlw	07h
   227+ 0050' 34DB               	retlw	0DBh
   228  0051' 3485               	retlw	085h
   229  0052' 3467               	retlw	067h
   230+ 0053' 3439               	retlw	039h
   231+ 0054' 34BA               	retlw	0BAh
   232  0055' 34E4               	retlw	0E4h
   233+ 0056' 3406               	retlw	06h
   234  0057' 3458               	retlw	058h
   235+ 0058' 3419               	retlw	019h
   236  0059' 3447               	retlw	047h
   237+ 005A' 34A5               	retlw	0A5h
   238+ 005B' 34FB               	retlw	0FBh
   239+ 005C' 3478               	retlw	078h
   240+ 005D' 3426               	retlw	026h
   241+ 005E' 34C4               	retlw	0C4h
   242  005F' 349A               	retlw	09Ah
   243  0060' 3465               	retlw	065h
   244+ 0061' 343B               	retlw	03Bh
   245+ 0062' 34D9               	retlw	0D9h
   246  0063' 3487               	retlw	087h
   247+ 0064' 3404               	retlw	04h
   248  0065' 345A               	retlw	05Ah
   249+ 0066' 34B8               	retlw	0B8h
   250  0067' 34E6               	retlw	0E6h
   251+ 0068' 34A7               	retlw	0A7h
   252+ 0069' 34F9               	retlw	0F9h
   253+ 006A' 341B               	retlw	01Bh
   254+ 006B' 3445               	retlw	045h
   255+ 006C' 34C6               	retlw	0C6h
   256  006D' 3498               	retlw	098h
   257  006E' 347A               	retlw	07Ah
   258+ 006F' 3424               	retlw	024h
   259+ 0070' 34F8               	retlw	0F8h
   260  0071' 34A6               	retlw	0A6h
   261+ 0072' 3444               	retlw	044h
   262  0073' 341A               	retlw	01Ah
   263+ 0074' 3499               	retlw	099h
   264  0075' 34C7               	retlw	0C7h
   265+ 0076' 3425               	retlw	025h
   266+ 0077' 347B               	retlw	07Bh
   267+ 0078' 343A               	retlw	03Ah
   268+ 0079' 3464               	retlw	064h
   269+ 007A' 3486               	retlw	086h
   270  007B' 34D8               	retlw	0D8h
   271  007C' 345B               	retlw	05Bh
   272+ 007D' 3405               	retlw	05h
   273+ 007E' 34E7               	retlw	0E7h
   274+ 007F' 34B9               	retlw	0B9h
   275+ 0080' 348C               	retlw	08Ch
   276  0081' 34D2               	retlw	0D2h
   277+ 0082' 3430               	retlw	030h
   278  0083' 346E               	retlw	06Eh
   279+ 0084' 34ED               	retlw	0EDh
   280+ 0085' 34B3               	retlw	0B3h
   281+ 0086' 3451               	retlw	051h
   282+ 0087' 340F               	retlw	0Fh
   283+ 0088' 344E               	retlw	04Eh
   284  0089' 3410               	retlw	010h
   285+ 008A' 34F2               	retlw	0F2h
   286+ 008B' 34AC               	retlw	0ACh
   287+ 008C' 342F               	retlw	02Fh
   288  008D' 3471               	retlw	071h
   289+ 008E' 3493               	retlw	093h
   290  008F' 34CD               	retlw	0CDh
   291+ 0090' 3411               	retlw	011h
   292  0091' 344F               	retlw	04Fh
   293+ 0092' 34AD               	retlw	0ADh
   294+ 0093' 34F3               	retlw	0F3h
   295+ 0094' 3470               	retlw	070h
   296+ 0095' 342E               	retlw	02Eh
   297+ 0096' 34CC               	retlw	0CCh
   298  0097' 3492               	retlw	092h
   299+ 0098' 34D3               	retlw	0D3h
   300+ 0099' 348D               	retlw	08Dh
   301+ 009A' 346F               	retlw	06Fh
   302+ 009B' 3431               	retlw	031h
   303+ 009C' 34B2               	retlw	0B2h
   304  009D' 34EC               	retlw	0ECh
   305+ 009E' 340E               	retlw	0Eh
   306  009F' 3450               	retlw	050h
   307+ 00A0' 34AF               	retlw	0AFh
   308+ 00A1' 34F1               	retlw	0F1h
   309+ 00A2' 3413               	retlw	013h
   310+ 00A3' 344D               	retlw	04Dh
   311+ 00A4' 34CE               	retlw	0CEh
   312  00A5' 3490               	retlw	090h
   313+ 00A6' 3472               	retlw	072h
   314+ 00A7' 342C               	retlw	02Ch
   315+ 00A8' 346D               	retlw	06Dh
   316+ 00A9' 3433               	retlw	033h
   317+ 00AA' 34D1               	retlw	0D1h
   318  00AB' 348F               	retlw	08Fh
   319+ 00AC' 340C               	retlw	0Ch
   320  00AD' 3452               	retlw	052h
   321+ 00AE' 34B0               	retlw	0B0h
   322+ 00AF' 34EE               	retlw	0EEh
   323+ 00B0' 3432               	retlw	032h
   324+ 00B1' 346C               	retlw	06Ch
   325+ 00B2' 348E               	retlw	08Eh
   326  00B3' 34D0               	retlw	0D0h
   327+ 00B4' 3453               	retlw	053h
   328+ 00B5' 340D               	retlw	0Dh
   329+ 00B6' 34EF               	retlw	0EFh
   330+ 00B7' 34B1               	retlw	0B1h
   331+ 00B8' 34F0               	retlw	0F0h
   332  00B9' 34AE               	retlw	0AEh
   333+ 00BA' 344C               	retlw	04Ch
   334  00BB' 3412               	retlw	012h
   335+ 00BC' 3491               	retlw	091h
   336+ 00BD' 34CF               	retlw	0CFh
   337+ 00BE' 342D               	retlw	02Dh
   338+ 00BF' 3473               	retlw	073h
   339+ 00C0' 34CA               	retlw	0CAh
   340  00C1' 3494               	retlw	094h
   341  00C2' 3476               	retlw	076h
   342+ 00C3' 3428               	retlw	028h
   343+ 00C4' 34AB               	retlw	0ABh
   344+ 00C5' 34F5               	retlw	0F5h
   345+ 00C6' 3417               	retlw	017h
   346  00C7' 3449               	retlw	049h
   347+ 00C8' 3408               	retlw	08h
   348  00C9' 3456               	retlw	056h
   349+ 00CA' 34B4               	retlw	0B4h
   350+ 00CB' 34EA               	retlw	0EAh
   351+ 00CC' 3469               	retlw	069h
   352+ 00CD' 3437               	retlw	037h
   353+ 00CE' 34D5               	retlw	0D5h
   354  00CF' 348B               	retlw	08Bh
   355+ 00D0' 3457               	retlw	057h
   356+ 00D1' 3409               	retlw	09h
   357+ 00D2' 34EB               	retlw	0EBh
   358+ 00D3' 34B5               	retlw	0B5h
   359+ 00D4' 3436               	retlw	036h
   360  00D5' 3468               	retlw	068h
   361+ 00D6' 348A               	retlw	08Ah
   362  00D7' 34D4               	retlw	0D4h
   363+ 00D8' 3495               	retlw	095h
   364+ 00D9' 34CB               	retlw	0CBh
   365+ 00DA' 3429               	retlw	029h
   366+ 00DB' 3477               	retlw	077h
   367+ 00DC' 34F4               	retlw	0F4h
   368  00DD' 34AA               	retlw	0AAh
   369  00DE' 3448               	retlw	048h
   370+ 00DF' 3416               	retlw	016h
   371+ 00E0' 34E9               	retlw	0E9h
   372  00E1' 34B7               	retlw	0B7h
   373+ 00E2' 3455               	retlw	055h
   374  00E3' 340B               	retlw	0Bh
   375+ 00E4' 3488               	retlw	088h
   376  00E5' 34D6               	retlw	0D6h
   377+ 00E6' 3434               	retlw	034h
   378+ 00E7' 346A               	retlw	06Ah
   379+ 00E8' 342B               	retlw	02Bh
   380+ 00E9' 3475               	retlw	075h
   381+ 00EA' 3497               	retlw	097h
   382  00EB' 34C9               	retlw	0C9h
   383  00EC' 344A               	retlw	04Ah
   384+ 00ED' 3414               	retlw	014h
   385+ 00EE' 34F6               	retlw	0F6h
   386  00EF' 34A8               	retlw	0A8h
   387+ 00F0' 3474               	retlw	074h
   388  00F1' 342A               	retlw	02Ah
   389+ 00F2' 34C8               	retlw	0C8h
   390+ 00F3' 3496               	retlw	096h
   391+ 00F4' 3415               	retlw	015h
   392+ 00F5' 344B               	retlw	04Bh
   393+ 00F6' 34A9               	retlw	0A9h
   394+ 00F7' 34F7               	retlw	0F7h
   395+ 00F8' 34B6               	retlw	0B6h
   396  00F9' 34E8               	retlw	0E8h
   397  00FA' 340A               	retlw	0Ah
   398+ 00FB' 3454               	retlw	054h
   399  00FC' 34D7               	retlw	0D7h
   400  00FD' 3489               	retlw	089h
   401+ 00FE' 346B               	retlw	06Bh
   402  00FF' 3435               	retlw	035h
   403+                          	global	_CRCValue
   404+                          	global	_DataEEAddr
   405+                          	global	_DataEEData
   406+                          	global	_SlaveConfigured
   407+                          	global	_DoorState
   408+                          	global	_InvalidKeyCount
   409+                          	global	_LowBatt
   410+                          	global	_MatchKey
   411+                          	global	_TimeCounter
   412+                          	global	_ToggleSkipFlag
   413+                          	global	_t
   414+                          	global	_EEPROMKey
   415+                          	global	_iButtonKey
   416+                          	global	_AutoMode
   417+                          psect	nvBANK0,class=BANK0,space=1
   418+                          global __pnvBANK0
   419+ 0000'                    __pnvBANK0:
   420  0000'                    _AutoMode:
   421+ 0000'                           ds      1
   422+                          
   423+                          	global	_ADCON0
   424+ 001F                     _ADCON0  equ     31
   425+                          	global	_ADRESH
   426+ 001E                     _ADRESH  equ     30
   427+                          	global	_FSR
   428+ 0004                     _FSR  equ     4
   429+                          	global	_INDF
   430+ 0000                     _INDF  equ     0
   431+                          	global	_INTCON
   432+ 000B                     _INTCON  equ     11
   433+                          	global	_PCL
   434+ 0002                     _PCL  equ     2
   435                           	global	_PCLATH
   436  000A                     _PCLATH  equ     10
   437+                          	global	_PIR1
   438+ 000C                     _PIR1  equ     12
   439                           	global	_PIR2
   440  000D                     _PIR2  equ     13
   441+                          	global	_PORTA
   442+ 0005                     _PORTA  equ     5
   443+                          	global	_PORTB
   444+ 0006                     _PORTB  equ     6
   445+                          	global	_PORTC
   446+ 0007                     _PORTC  equ     7
   447+                          	global	_SSPBUF
   448+ 0013                     _SSPBUF  equ     19
   449+                          	global	_SSPCON
   450+ 0014                     _SSPCON  equ     20
   451                           	global	_STATUS
   452  0003                     _STATUS  equ     3
   453+                          	global	_T1CON
   454+ 0010                     _T1CON  equ     16
   455+                          	global	_TMR0
   456+ 0001                     _TMR0  equ     1
   457+                          	global	_TMR1H
   458+ 000F                     _TMR1H  equ     15
   459+                          	global	_TMR1L
   460+ 000E                     _TMR1L  equ     14
   461+                          	global	_ADFM
   462+ 00FF                     _ADFM  equ     255
   463                           	global	_ADIF
   464  0066                     _ADIF  equ     102
   465+                          	global	_ADON
   466+ 00F8                     _ADON  equ     248
   467                           	global	_C1IF
   468  006D                     _C1IF  equ     109
   469+                          	global	_C2IF
   470+ 006E                     _C2IF  equ     110
   471+                          	global	_CARRY
   472+ 0018                     _CARRY  equ     24
   473+                          	global	_CHS0
   474+ 00FA                     _CHS0  equ     250
   475+                          	global	_CHS1
   476+ 00FB                     _CHS1  equ     251
   477+                          	global	_CHS2
   478+ 00FC                     _CHS2  equ     252
   479                           	global	_CHS3
   480  00FD                     _CHS3  equ     253
   481+                          	global	_CKP
   482+ 00A4                     _CKP  equ     164
   483+                          	global	_DC
   484+ 0019                     _DC  equ     25
   485+                          	global	_EEIF
   486+ 006C                     _EEIF  equ     108
   487+                          	global	_GIE
   488+ 005F                     _GIE  equ     95
   489+                          	global	_GODONE
   490+ 00F9                     _GODONE  equ     249
   491                           	global	_INTE
   492  005C                     _INTE  equ     92
   493+                          	global	_INTF
   494+ 0059                     _INTF  equ     89
   495                           	global	_IRP
   496  001F                     _IRP  equ     31
   497+                          	global	_OSFIF
   498+ 006F                     _OSFIF  equ     111
   499+                          	global	_PD
   500+ 001B                     _PD  equ     27
   501+                          	global	_PEIE
   502+ 005E                     _PEIE  equ     94
   503+                          	global	_RA0
   504+ 0028                     _RA0  equ     40
   505+                          	global	_RA1
   506+ 0029                     _RA1  equ     41
   507                           	global	_RA2
   508  002A                     _RA2  equ     42
   509+                          	global	_RA3
   510+ 002B                     _RA3  equ     43
   511+                          	global	_RA4
   512+ 002C                     _RA4  equ     44
   513+                          	global	_RA5
   514+ 002D                     _RA5  equ     45
   515                           	global	_RABIE
   516  005B                     _RABIE  equ     91
   517+                          	global	_RABIF
   518+ 0058                     _RABIF  equ     88
   519                           	global	_RB4
   520  0034                     _RB4  equ     52
   521+                          	global	_RB5
   522+ 0035                     _RB5  equ     53
   523                           	global	_RB6
   524  0036                     _RB6  equ     54
   525+                          	global	_RB7
   526+ 0037                     _RB7  equ     55
   527+                          	global	_RBIE
   528+ 005B                     _RBIE  equ     91
   529+                          	global	_RBIF
   530+ 0058                     _RBIF  equ     88
   531+                          	global	_RC0
   532+ 0038                     _RC0  equ     56
   533+                          	global	_RC1
   534+ 0039                     _RC1  equ     57
   535                           	global	_RC2
   536  003A                     _RC2  equ     58
   537+                          	global	_RC3
   538+ 003B                     _RC3  equ     59
   539+                          	global	_RC4
   540+ 003C                     _RC4  equ     60
   541+                          	global	_RC5
   542+ 003D                     _RC5  equ     61
   543+                          	global	_RC6
   544+ 003E                     _RC6  equ     62
   545+                          	global	_RC7
   546+ 003F                     _RC7  equ     63
   547                           	global	_RP0
   548  001D                     _RP0  equ     29
   549+                          	global	_RP1
   550+ 001E                     _RP1  equ     30
   551                           	global	_SSPEN
   552  00A5                     _SSPEN  equ     165
   553+                          	global	_SSPIF
   554+ 0063                     _SSPIF  equ     99
   555+                          	global	_SSPM0
   556+ 00A0                     _SSPM0  equ     160
   557+                          	global	_SSPM1
   558+ 00A1                     _SSPM1  equ     161
   559+                          	global	_SSPM2
   560+ 00A2                     _SSPM2  equ     162
   561+                          	global	_SSPM3
   562+ 00A3                     _SSPM3  equ     163
   563                           	global	_SSPOV
   564  00A6                     _SSPOV  equ     166
   565                           	global	_T0IE
   566  005D                     _T0IE  equ     93
   567+                          	global	_T0IF
   568+ 005A                     _T0IF  equ     90
   569+                          	global	_T1CKPS0
   570+ 0084                     _T1CKPS0  equ     132
   571                           	global	_T1CKPS1
   572  0085                     _T1CKPS1  equ     133
   573+                          	global	_T1GINV
   574+ 0087                     _T1GINV  equ     135
   575                           	global	_T1OSCEN
   576  0083                     _T1OSCEN  equ     131
   577+                          	global	_T1SYNC
   578+ 0082                     _T1SYNC  equ     130
   579                           	global	_TMR1CS
   580  0081                     _TMR1CS  equ     129
   581+                          	global	_TMR1GE
   582+ 0086                     _TMR1GE  equ     134
   583+                          	global	_TMR1IF
   584+ 0060                     _TMR1IF  equ     96
   585+                          	global	_TMR1ON
   586+ 0080                     _TMR1ON  equ     128
   587+                          	global	_TO
   588+ 001C                     _TO  equ     28
   589+                          	global	_VCFG
   590+ 00FE                     _VCFG  equ     254
   591                           	global	_WCOL
   592  00A7                     _WCOL  equ     167
   593+                          	global	_ZERO
   594+ 001A                     _ZERO  equ     26
   595+                          	global	_ADCON1
   596+ 009F                     _ADCON1  equ     159
   597+                          	global	_ADRESL
   598+ 009E                     _ADRESL  equ     158
   599                           	global	_IOCA
   600  0096                     _IOCA  equ     150
   601+                          	global	_OPTION
   602+ 0081                     _OPTION  equ     129
   603                           	global	_OSCCON
   604  008F                     _OSCCON  equ     143
   605+                          	global	_OSCTUNE
   606+ 0090                     _OSCTUNE  equ     144
   607                           	global	_PCON
   608  008E                     _PCON  equ     142
   609+                          	global	_PIE1
   610+ 008C                     _PIE1  equ     140
   611+                          	global	_PIE2
   612+ 008D                     _PIE2  equ     141
   613+                          	global	_SSPADD
   614+ 0093                     _SSPADD  equ     147
   615+                          	global	_SSPMSK
   616+ 0093                     _SSPMSK  equ     147
   617+                          	global	_SSPSTAT
   618+ 0094                     _SSPSTAT  equ     148
   619                           	global	_TRISA
   620  0085                     _TRISA  equ     133
   621                           	global	_TRISB
   622  0086                     _TRISB  equ     134
   623+                          	global	_TRISC
   624+ 0087                     _TRISC  equ     135
   625+                          	global	_WDTCON
   626+ 0097                     _WDTCON  equ     151
   627                           	global	_WPUA
   628  0095                     _WPUA  equ     149
   629                           	global	_ADCS0
   630  04FC                     _ADCS0  equ     1276
   631                           	global	_ADCS1
   632  04FD                     _ADCS1  equ     1277
   633                           	global	_ADCS2
   634  04FE                     _ADCS2  equ     1278
   635                           	global	_ADIE
   636  0466                     _ADIE  equ     1126
   637                           	global	_BF
   638  04A0                     _BF  equ     1184
   639                           	global	_BOR
   640  0470                     _BOR  equ     1136
   641                           	global	_C1IE
   642  046D                     _C1IE  equ     1133
   643                           	global	_C2IE
   644  046E                     _C2IE  equ     1134
   645                           	global	_CKE
   646  04A6                     _CKE  equ     1190
   647                           	global	_DA
   648  04A5                     _DA  equ     1189
   649                           	global	_EEIE
   650  046C                     _EEIE  equ     1132
   651                           	global	_HTS
   652  047A                     _HTS  equ     1146
   653                           	global	_INTEDG
   654  040E                     _INTEDG  equ     1038
   655                           	global	_IOCA0
   656  04B0                     _IOCA0  equ     1200
   657                           	global	_IOCA1
   658  04B1                     _IOCA1  equ     1201
   659                           	global	_IOCA2
   660  04B2                     _IOCA2  equ     1202
   661                           	global	_IOCA3
   662  04B3                     _IOCA3  equ     1203
   663                           	global	_IOCA4
   664  04B4                     _IOCA4  equ     1204
   665                           	global	_IOCA5
   666  04B5                     _IOCA5  equ     1205
   667                           	global	_IRCF0
   668  047C                     _IRCF0  equ     1148
   669                           	global	_IRCF1
   670  047D                     _IRCF1  equ     1149
   671                           	global	_IRCF2
   672  047E                     _IRCF2  equ     1150
   673                           	global	_LTS
   674  0479                     _LTS  equ     1145
   675                           	global	_OSFIE
   676  046F                     _OSFIE  equ     1135
   677                           	global	_OSTS
   678  047B                     _OSTS  equ     1147
   679                           	global	_POR
   680  0471                     _POR  equ     1137
   681                           	global	_PS0
   682  0408                     _PS0  equ     1032
   683                           	global	_PS1
   684  0409                     _PS1  equ     1033
   685                           	global	_PS2
   686  040A                     _PS2  equ     1034
   687                           	global	_PSA
   688  040B                     _PSA  equ     1035
   689                           	global	_RABPU
   690  040F                     _RABPU  equ     1039
   691                           	global	_RBPU
   692  040F                     _RBPU  equ     1039
   693                           	global	_RW
   694  04A2                     _RW  equ     1186
   695                           	global	_SBOREN
   696  0474                     _SBOREN  equ     1140
   697                           	global	_SCS
   698  0478                     _SCS  equ     1144
   699                           	global	_SMP
   700  04A7                     _SMP  equ     1191
   701                           	global	_SSPIE
   702  0463                     _SSPIE  equ     1123
   703                           	global	_START
   704  04A3                     _START  equ     1187
   705                           	global	_STOP
   706  04A4                     _STOP  equ     1188
   707                           	global	_SWDTEN
   708  04B8                     _SWDTEN  equ     1208
   709                           	global	_T0CS
   710  040D                     _T0CS  equ     1037
   711                           	global	_T0SE
   712  040C                     _T0SE  equ     1036
   713                           	global	_TMR1IE
   714  0460                     _TMR1IE  equ     1120
   715                           	global	_TRISA0
   716  0428                     _TRISA0  equ     1064
   717                           	global	_TRISA1
   718  0429                     _TRISA1  equ     1065
   719                           	global	_TRISA2
   720  042A                     _TRISA2  equ     1066
   721                           	global	_TRISA3
   722  042B                     _TRISA3  equ     1067
   723                           	global	_TRISA4
   724  042C                     _TRISA4  equ     1068
   725                           	global	_TRISA5
   726  042D                     _TRISA5  equ     1069
   727                           	global	_TRISB4
   728  0434                     _TRISB4  equ     1076
   729                           	global	_TRISB5
   730  0435                     _TRISB5  equ     1077
   731                           	global	_TRISB6
   732  0436                     _TRISB6  equ     1078
   733                           	global	_TRISB7
   734  0437                     _TRISB7  equ     1079
   735                           	global	_TRISC0
   736  0438                     _TRISC0  equ     1080
   737                           	global	_TRISC1
   738  0439                     _TRISC1  equ     1081
   739                           	global	_TRISC2
   740  043A                     _TRISC2  equ     1082
   741                           	global	_TRISC3
   742  043B                     _TRISC3  equ     1083
   743                           	global	_TRISC4
   744  043C                     _TRISC4  equ     1084
   745                           	global	_TRISC5
   746  043D                     _TRISC5  equ     1085
   747                           	global	_TRISC6
   748  043E                     _TRISC6  equ     1086
   749                           	global	_TRISC7
   750  043F                     _TRISC7  equ     1087
   751                           	global	_TUN0
   752  0480                     _TUN0  equ     1152
   753                           	global	_TUN1
   754  0481                     _TUN1  equ     1153
   755                           	global	_TUN2
   756  0482                     _TUN2  equ     1154
   757                           	global	_TUN3
   758  0483                     _TUN3  equ     1155
   759                           	global	_TUN4
   760  0484                     _TUN4  equ     1156
   761                           	global	_UA
   762  04A1                     _UA  equ     1185
   763                           	global	_ULPWUE
   764  0475                     _ULPWUE  equ     1141
   765                           	global	_WDTPS0
   766  04B9                     _WDTPS0  equ     1209
   767                           	global	_WDTPS1
   768  04BA                     _WDTPS1  equ     1210
   769                           	global	_WDTPS2
   770  04BB                     _WDTPS2  equ     1211
   771                           	global	_WDTPS3
   772  04BC                     _WDTPS3  equ     1212
   773                           	global	_WPUA0
   774  04A8                     _WPUA0  equ     1192
   775                           	global	_WPUA1
   776  04A9                     _WPUA1  equ     1193
   777                           	global	_WPUA2
   778  04AA                     _WPUA2  equ     1194
   779                           	global	_WPUA4
   780  04AC                     _WPUA4  equ     1196
   781                           	global	_WPUA5
   782  04AD                     _WPUA5  equ     1197
   783                           	global	_ANSEL
   784  011E                     _ANSEL  equ     286
   785                           	global	_ANSELH
   786  011F                     _ANSELH  equ     287
   787                           	global	_CM1CON0
   788  0119                     _CM1CON0  equ     281
   789                           	global	_CM2CON0
   790  011A                     _CM2CON0  equ     282
   791                           	global	_CM2CON1
   792  011B                     _CM2CON1  equ     283
   793                           	global	_EEADR
   794  010D                     _EEADR  equ     269
   795                           	global	_EEADRL
   796  010D                     _EEADRL  equ     269
   797                           	global	_EEDAT
   798  010C                     _EEDAT  equ     268
   799                           	global	_EEDATA
   800  010C                     _EEDATA  equ     268
   801                           	global	_EEDATL
   802  010C                     _EEDATL  equ     268
   803                           	global	_IOCB
   804  0116                     _IOCB  equ     278
   805                           	global	_VRCON
   806  0118                     _VRCON  equ     280
   807                           	global	_WPUB
   808  0115                     _WPUB  equ     277
   809                           	global	_ANS0
   810  08F0                     _ANS0  equ     2288
   811                           	global	_ANS1
   812  08F1                     _ANS1  equ     2289
   813                           	global	_ANS10
   814  08FA                     _ANS10  equ     2298
   815                           	global	_ANS11
   816  08FB                     _ANS11  equ     2299
   817                           	global	_ANS2
   818  08F2                     _ANS2  equ     2290
   819                           	global	_ANS3
   820  08F3                     _ANS3  equ     2291
   821                           	global	_ANS4
   822  08F4                     _ANS4  equ     2292
   823                           	global	_ANS5
   824  08F5                     _ANS5  equ     2293
   825                           	global	_ANS6
   826  08F6                     _ANS6  equ     2294
   827                           	global	_ANS7
   828  08F7                     _ANS7  equ     2295
   829                           	global	_ANS8
   830  08F8                     _ANS8  equ     2296
   831                           	global	_ANS9
   832  08F9                     _ANS9  equ     2297
   833                           	global	_C1CH0
   834  08C8                     _C1CH0  equ     2248
   835                           	global	_C1CH1
   836  08C9                     _C1CH1  equ     2249
   837                           	global	_C1OE
   838  08CD                     _C1OE  equ     2253
   839                           	global	_C1ON
   840  08CF                     _C1ON  equ     2255
   841                           	global	_C1OUT
   842  08CE                     _C1OUT  equ     2254
   843                           	global	_C1POL
   844  08CC                     _C1POL  equ     2252
   845                           	global	_C1R
   846  08CA                     _C1R  equ     2250
   847                           	global	_C1VREN
   848  08C7                     _C1VREN  equ     2247
   849                           	global	_C2CH0
   850  08D0                     _C2CH0  equ     2256
   851                           	global	_C2CH1
   852  08D1                     _C2CH1  equ     2257
   853                           	global	_C2OE
   854  08D5                     _C2OE  equ     2261
   855                           	global	_C2ON
   856  08D7                     _C2ON  equ     2263
   857                           	global	_C2OUT
   858  08D6                     _C2OUT  equ     2262
   859                           	global	_C2POL
   860  08D4                     _C2POL  equ     2260
   861                           	global	_C2R
   862  08D2                     _C2R  equ     2258
   863                           	global	_C2SYNC
   864  08D8                     _C2SYNC  equ     2264
   865                           	global	_C2VREN
   866  08C6                     _C2VREN  equ     2246
   867                           	global	_IOCB4
   868  08B4                     _IOCB4  equ     2228
   869                           	global	_IOCB5
   870  08B5                     _IOCB5  equ     2229
   871                           	global	_IOCB6
   872  08B6                     _IOCB6  equ     2230
   873                           	global	_IOCB7
   874  08B7                     _IOCB7  equ     2231
   875                           	global	_MC1OUT
   876  08DF                     _MC1OUT  equ     2271
   877                           	global	_MC2OUT
   878  08DE                     _MC2OUT  equ     2270
   879                           	global	_T1GSS
   880  08D9                     _T1GSS  equ     2265
   881                           	global	_VP6EN
   882  08C4                     _VP6EN  equ     2244
   883                           	global	_VR0
   884  08C0                     _VR0  equ     2240
   885                           	global	_VR1
   886  08C1                     _VR1  equ     2241
   887                           	global	_VR2
   888  08C2                     _VR2  equ     2242
   889                           	global	_VR3
   890  08C3                     _VR3  equ     2243
   891                           	global	_VRR
   892  08C5                     _VRR  equ     2245
   893                           	global	_WPUB4
   894  08AC                     _WPUB4  equ     2220
   895                           	global	_WPUB5
   896  08AD                     _WPUB5  equ     2221
   897                           	global	_WPUB6
   898  08AE                     _WPUB6  equ     2222
   899                           	global	_WPUB7
   900  08AF                     _WPUB7  equ     2223
   901                           	global	_EECON1
   902  018C                     _EECON1  equ     396
   903                           	global	_EECON2
   904  018D                     _EECON2  equ     397
   905                           	global	_SRCON
   906  019E                     _SRCON  equ     414
   907                           	global	_C1SEN
   908  0CF5                     _C1SEN  equ     3317
   909                           	global	_C2REN
   910  0CF4                     _C2REN  equ     3316
   911                           	global	_PULSR
   912  0CF2                     _PULSR  equ     3314
   913                           	global	_PULSS
   914  0CF3                     _PULSS  equ     3315
   915                           	global	_RD
   916  0C60                     _RD  equ     3168
   917                           	global	_SR0
   918  0CF6                     _SR0  equ     3318
   919                           	global	_SR1
   920  0CF7                     _SR1  equ     3319
   921                           	global	_WR
   922  0C61                     _WR  equ     3169
   923                           	global	_WREN
   924  0C62                     _WREN  equ     3170
   925                           	global	_WRERR
   926  0C63                     _WRERR  equ     3171
   927                           	file	"CMC_iButton.as"
   928                           	line	#
   929                           psect cinit,class=CODE,delta=2
   930                           global start_initialization
   931  0000'                    start_initialization:
   932                           
   933                           psect	bssCOMMON,class=COMMON,space=1
   934                           global __pbssCOMMON
   935  0000'                    __pbssCOMMON:
   936  0000'                    _DoorState:
   937  0000'                           ds      1
   938                           
   939  0001'                    _InvalidKeyCount:
   940  0001'                           ds      1
   941                           
   942  0002'                    _LowBatt:
   943  0002'                           ds      1
   944                           
   945  0003'                    _MatchKey:
   946  0003'                           ds      1
   947                           
   948  0004'                    _TimeCounter:
   949  0004'                           ds      1
   950                           
   951  0005'                    _ToggleSkipFlag:
   952  0005'                           ds      1
   953                           
   954  0006'                    _t:
   955  0006'                           ds      1
   956                           
   957                           psect	bssBANK0,class=BANK0,space=1
   958                           global __pbssBANK0
   959  0000'                    __pbssBANK0:
   960  0000'                    _DataEEAddr:
   961  0000'                           ds      2
   962                           
   963  0002'                    _DataEEData:
   964  0002'                           ds      2
   965                           
   966  0004'                    _SlaveConfigured:
   967  0004'                           ds      1
   968                           
   969  0005'                    _EEPROMKey:
   970  0005'                           ds      9
   971                           
   972  000E'                    _iButtonKey:
   973  000E'                           ds      9
   974                           
   975                           psect clrtext,class=CODE,delta=2
   976                           global clear_ram
   977                           ;	Called with FSR containing the base address, and
   978                           ;	W with the last address+1
   979  0000'                    clear_ram:
   980  0000' 0064               	clrwdt			;clear the watchdog before getting into this loop
   981  0001'                    clrloop:
   982  0001' 0180               	clrf	indf		;clear RAM location pointed to by FSR
   983  0002' 0A84               	incf	fsr,f		;increment pointer
   984  0003' 0604               	xorwf	fsr,w		;XOR with final address
   985  0004' 1903               	btfsc	status,2	;have we reached the end yet?
   986  0005' 3400               	retlw	0		;all done for this memory range, return
   987  0006' 0604               	xorwf	fsr,w		;XOR again to restore value
   988  0007' 2801'              	goto	clrloop		;do the next byte
   989                           
   990                           ; Clear objects allocated to COMMON
   991                           psect cinit,class=CODE,delta=2
   992  0000' 3000'              	movlw	low(__pbssCOMMON)
   993  0001' 0084               	movwf	fsr
   994  0002' 3000'              	movlw	low((__pbssCOMMON)+07h)
   995  0003' 2000'              	fcall	clear_ram
   996                           ; Clear objects allocated to BANK0
   997                           psect cinit,class=CODE,delta=2
   998  0004' 1383               	bcf	status, 7	;select IRP bank0
   999  0005' 3000'              	movlw	low(__pbssBANK0)
  1000  0006' 0084               	movwf	fsr
  1001  0007' 3000'              	movlw	low((__pbssBANK0)+017h)
  1002  0008' 2000'              	fcall	clear_ram
  1003                           psect cinit,class=CODE,delta=2
  1004                           global end_of_initialization
  1005                           
  1006                           ;End of C runtime variable initationation code
  1007                           
  1008  0009'                    end_of_initialization:
  1009  0009' 0183               clrf status
  1010  000A' 2800'              ljmp _main	;jump to C main() function
  1011                           psect	cstackBANK1,class=BANK1,space=1
  1012                           global __pcstackBANK1
  1013  0000'                    __pcstackBANK1:
  1014  0000'                    	ds	1
  1015                           	global	?_isr
  1016  0001'                    ?_isr: ;@ 0x1
  1017                           psect	cstackCOMMON,class=COMMON,space=1
  1018                           global __pcstackCOMMON
  1019  0000'                    __pcstackCOMMON:
  1020                           	global	?_GoToSleep
  1021  0000'                    ?_GoToSleep: ;@ 0x0
  1022                           	global	??_GoToSleep
  1023  0000'                    ??_GoToSleep: ;@ 0x0
  1024                           	global	?_ToggleBuzzLED
  1025  0000'                    ?_ToggleBuzzLED: ;@ 0x0
  1026                           	global	??_DoorOpen
  1027  0000'                    ??_DoorOpen: ;@ 0x0
  1028                           	global	??_CheckForiButtonDisconnect
  1029  0000'                    ??_CheckForiButtonDisconnect: ;@ 0x0
  1030                           	global	??_CRCCheck
  1031  0000'                    ??_CRCCheck: ;@ 0x0
  1032                           	global	??_WriteByteToiButton
  1033  0000'                    ??_WriteByteToiButton: ;@ 0x0
  1034                           	global	??_strcmp
  1035  0000'                    ??_strcmp: ;@ 0x0
  1036                           	global	??_EEPROMWriteKey
  1037  0000'                    ??_EEPROMWriteKey: ;@ 0x0
  1038                           	global	??_Wait_With_LED_Blink
  1039  0000'                    ??_Wait_With_LED_Blink: ;@ 0x0
  1040                           	global	??_EEPROMWriteKeyByte
  1041  0000'                    ??_EEPROMWriteKeyByte: ;@ 0x0
  1042                           	global	??_ToggleBuzzLED
  1043  0000'                    ??_ToggleBuzzLED: ;@ 0x0
  1044                           	global	?_DoorClose
  1045  0000'                    ?_DoorClose: ;@ 0x0
  1046                           	global	??_DoorClose
  1047  0000'                    ??_DoorClose: ;@ 0x0
  1048                           	global	?_ToggleLED
  1049  0000'                    ?_ToggleLED: ;@ 0x0
  1050                           	global	?_WriteEEPROM
  1051  0000'                    ?_WriteEEPROM: ;@ 0x0
  1052                           	global	??_InitiButton
  1053  0000'                    ??_InitiButton: ;@ 0x0
  1054                           	global	??_DelayMs
  1055  0000'                    ??_DelayMs: ;@ 0x0
  1056                           	global	??_delay_10us
  1057  0000'                    ??_delay_10us: ;@ 0x0
  1058                           	global	?_delay_10us
  1059  0000'                    ?_delay_10us: ;@ 0x0
  1060                           	global	??_WriteEEPROM
  1061  0000'                    ??_WriteEEPROM: ;@ 0x0
  1062                           	global	??_ReadEEPROM
  1063  0000'                    ??_ReadEEPROM: ;@ 0x0
  1064                           	global	??_ToggleLED
  1065  0000'                    ??_ToggleLED: ;@ 0x0
  1066                           	global	??_ReadByteToiButton
  1067  0000'                    ??_ReadByteToiButton: ;@ 0x0
  1068                           	global	??_PowerInit
  1069  0000'                    ??_PowerInit: ;@ 0x0
  1070                           	global	?_PowerInit
  1071  0000'                    ?_PowerInit: ;@ 0x0
  1072                           	global	InitiButton@PresencePulse
  1073  0000'                    InitiButton@PresencePulse:	; 1 bytes @ 0x0
  1074  0000'                    	ds	1
  1075                           	global	?_WriteByteToiButton
  1076  0001'                    ?_WriteByteToiButton: ;@ 0x1
  1077                           	global	??_ReadiButton
  1078  0001'                    ??_ReadiButton: ;@ 0x1
  1079                           	global	?_CRCCheck
  1080  0001'                    ?_CRCCheck: ;@ 0x1
  1081                           	global	?_CheckForiButtonDisconnect
  1082  0001'                    ?_CheckForiButtonDisconnect: ;@ 0x1
  1083                           	global	?_InitiButton
  1084  0001'                    ?_InitiButton: ;@ 0x1
  1085                           	global	?_ReadByteToiButton
  1086  0001'                    ?_ReadByteToiButton: ;@ 0x1
  1087                           	global	strcmp@x
  1088  0001'                    strcmp@x:	; 1 bytes @ 0x1
  1089                           	global	DoorOpen@BattStatus
  1090  0001'                    DoorOpen@BattStatus:	; 1 bytes @ 0x1
  1091                           	global	Wait_With_LED_Blink@k
  1092  0001'                    Wait_With_LED_Blink@k:	; 2 bytes @ 0x1
  1093  0001'                    	ds	1
  1094                           	global	??_ClearKey
  1095  0002'                    ??_ClearKey: ;@ 0x2
  1096                           	global	?_EEPROMWriteKeyByte
  1097  0002'                    ?_EEPROMWriteKeyByte: ;@ 0x2
  1098                           	global	??_EEPROMReadKey
  1099  0002'                    ??_EEPROMReadKey: ;@ 0x2
  1100                           	global	?_DoorOpen
  1101  0002'                    ?_DoorOpen: ;@ 0x2
  1102                           	global	?_EEPROMWriteKey
  1103  0002'                    ?_EEPROMWriteKey: ;@ 0x2
  1104                           	global	??_ClearAllKeys
  1105  0002'                    ??_ClearAllKeys: ;@ 0x2
  1106                           	global	?_ReadiButton
  1107  0002'                    ?_ReadiButton: ;@ 0x2
  1108                           	global	strcmp@i
  1109  0002'                    strcmp@i:	; 1 bytes @ 0x2
  1110  0002'                    	ds	1
  1111                           	global	?_ClearKey
  1112  0003'                    ?_ClearKey: ;@ 0x3
  1113                           	global	?_ClearAllKeys
  1114  0003'                    ?_ClearAllKeys: ;@ 0x3
  1115                           	global	?_Wait_With_LED_Blink
  1116  0003'                    ?_Wait_With_LED_Blink: ;@ 0x3
  1117  0003'                    	ds	1
  1118                           psect	cstackBANK0,class=BANK0,space=1
  1119                           global __pcstackBANK0
  1120  0000'                    __pcstackBANK0:
  1121                           	global	?_ReadEEPROM
  1122  0000'                    ?_ReadEEPROM: ;@ 0x0
  1123                           	global	?_strcmp
  1124  0000'                    ?_strcmp: ;@ 0x0
  1125                           	global	strcmp@y
  1126  0000'                    strcmp@y:	; 1 bytes @ 0x0
  1127                           	global	WriteByteToiButton@d
  1128  0000'                    WriteByteToiButton@d:	; 1 bytes @ 0x0
  1129                           	global	ReadByteToiButton@temp
  1130  0000'                    ReadByteToiButton@temp:	; 1 bytes @ 0x0
  1131                           	global	CRCCheck@KeyAllByteZero
  1132  0000'                    CRCCheck@KeyAllByteZero:	; 1 bytes @ 0x0
  1133                           	global	EEPROMReadKey@ReadAddress
  1134  0000'                    EEPROMReadKey@ReadAddress:	; 1 bytes @ 0x0
  1135                           	global	DelayMs@i
  1136  0000'                    DelayMs@i:	; 2 bytes @ 0x0
  1137  0000'                    	ds	1
  1138                           	global	WriteByteToiButton@n
  1139  0001'                    WriteByteToiButton@n:	; 1 bytes @ 0x1
  1140                           	global	EEPROMReadKey@KeyLength
  1141  0001'                    EEPROMReadKey@KeyLength:	; 1 bytes @ 0x1
  1142                           	global	ReadByteToiButton@n
  1143  0001'                    ReadByteToiButton@n:	; 1 bytes @ 0x1
  1144                           	global	CRCCheck@CRC
  1145  0001'                    CRCCheck@CRC:	; 1 bytes @ 0x1
  1146  0001'                    	ds	1
  1147                           	global	?_EEPROMReadKey
  1148  0002'                    ?_EEPROMReadKey: ;@ 0x2
  1149                           	global	??_AvailabeKey
  1150  0002'                    ??_AvailabeKey: ;@ 0x2
  1151                           	global	ReadByteToiButton@i_byte
  1152  0002'                    ReadByteToiButton@i_byte:	; 1 bytes @ 0x2
  1153                           	global	CRCCheck@LenForCrc
  1154  0002'                    CRCCheck@LenForCrc:	; 1 bytes @ 0x2
  1155                           	global	DelayMs@j
  1156  0002'                    DelayMs@j:	; 2 bytes @ 0x2
  1157  0002'                    	ds	1
  1158                           	global	CRCCheck@KeyPointer
  1159  0003'                    CRCCheck@KeyPointer:	; 1 bytes @ 0x3
  1160                           	global	AvailabeKey@key
  1161  0003'                    AvailabeKey@key:	; 1 bytes @ 0x3
  1162  0003'                    	ds	1
  1163                           	global	?_DelayMs
  1164  0004'                    ?_DelayMs: ;@ 0x4
  1165                           	global	ReadiButton@iButtonPresent
  1166  0004'                    ReadiButton@iButtonPresent:	; 1 bytes @ 0x4
  1167                           	global	AvailabeKey@i
  1168  0004'                    AvailabeKey@i:	; 1 bytes @ 0x4
  1169                           	global	DelayMs@TimeCnt
  1170  0004'                    DelayMs@TimeCnt:	; 2 bytes @ 0x4
  1171  0004'                    	ds	1
  1172                           	global	??_ConfigureMasterKey
  1173  0005'                    ??_ConfigureMasterKey: ;@ 0x5
  1174                           	global	?_AvailabeKey
  1175  0005'                    ?_AvailabeKey: ;@ 0x5
  1176                           	global	ReadiButton@n
  1177  0005'                    ReadiButton@n:	; 1 bytes @ 0x5
  1178  0005'                    	ds	1
  1179                           	global	??_InvalidKeyIndication
  1180  0006'                    ??_InvalidKeyIndication: ;@ 0x6
  1181                           	global	??_BuzzerBeep
  1182  0006'                    ??_BuzzerBeep: ;@ 0x6
  1183                           	global	EEPROMWriteKey@WriteAddress
  1184  0006'                    EEPROMWriteKey@WriteAddress:	; 1 bytes @ 0x6
  1185                           	global	EEPROMWriteKeyByte@WriteAddress
  1186  0006'                    EEPROMWriteKeyByte@WriteAddress:	; 1 bytes @ 0x6
  1187  0006'                    	ds	1
  1188                           	global	??_main
  1189  0007'                    ??_main: ;@ 0x7
  1190                           	global	?_InvalidKeyIndication
  1191  0007'                    ?_InvalidKeyIndication: ;@ 0x7
  1192                           	global	EEPROMWriteKey@KeyLength
  1193  0007'                    EEPROMWriteKey@KeyLength:	; 1 bytes @ 0x7
  1194                           	global	ClearAllKeys@Master_Also
  1195  0007'                    ClearAllKeys@Master_Also:	; 1 bytes @ 0x7
  1196                           	global	ClearKey@KeyNum
  1197  0007'                    ClearKey@KeyNum:	; 1 bytes @ 0x7
  1198  0007'                    	ds	1
  1199                           	global	ClearAllKeys@i
  1200  0008'                    ClearAllKeys@i:	; 1 bytes @ 0x8
  1201                           	global	ClearKey@i
  1202  0008'                    ClearKey@i:	; 1 bytes @ 0x8
  1203  0008'                    	ds	3
  1204                           	global	BuzzerBeep@BeepNum
  1205  000B'                    BuzzerBeep@BeepNum:	; 1 bytes @ 0xB
  1206  000B'                    	ds	1
  1207                           	global	BuzzerBeep@BeepTime
  1208  000C'                    BuzzerBeep@BeepTime:	; 2 bytes @ 0xC
  1209  000C'                    	ds	2
  1210                           	global	BuzzerBeep@BeepCnt
  1211  000E'                    BuzzerBeep@BeepCnt:	; 1 bytes @ 0xE
  1212  000E'                    	ds	1
  1213                           	global	?_BuzzerBeep
  1214  000F'                    ?_BuzzerBeep: ;@ 0xF
  1215                           	global	BuzzerBeep@LONG_BEEP
  1216  000F'                    BuzzerBeep@LONG_BEEP:	; 1 bytes @ 0xF
  1217  000F'                    	ds	1
  1218                           	global	??_Configuration
  1219  0010'                    ??_Configuration: ;@ 0x10
  1220                           	global	ConfigureMasterKey@PowerOnBeep
  1221  0010'                    ConfigureMasterKey@PowerOnBeep:	; 1 bytes @ 0x10
  1222  0010'                    	ds	1
  1223                           	global	?_ConfigureMasterKey
  1224  0011'                    ?_ConfigureMasterKey: ;@ 0x11
  1225                           	global	Configuration@key
  1226  0011'                    Configuration@key:	; 1 bytes @ 0x11
  1227  0011'                    	ds	1
  1228                           	global	Configuration@KeyConfigured
  1229  0012'                    Configuration@KeyConfigured:	; 1 bytes @ 0x12
  1230  0012'                    	ds	1
  1231                           	global	Configuration@i
  1232  0013'                    Configuration@i:	; 1 bytes @ 0x13
  1233  0013'                    	ds	1
  1234                           	global	??_LockOperation
  1235  0014'                    ??_LockOperation: ;@ 0x14
  1236                           	global	?_Configuration
  1237  0014'                    ?_Configuration: ;@ 0x14
  1238  0014'                    	ds	1
  1239                           	global	LockOperation@i
  1240  0015'                    LockOperation@i:	; 2 bytes @ 0x15
  1241  0015'                    	ds	2
  1242                           	global	LockOperation@ShouldCheckConfig
  1243  0017'                    LockOperation@ShouldCheckConfig:	; 1 bytes @ 0x17
  1244  0017'                    	ds	1
  1245                           	global	?_LockOperation
  1246  0018'                    ?_LockOperation: ;@ 0x18
  1247                           	global	main@PowerOnBeep
  1248  0018'                    main@PowerOnBeep:	; 1 bytes @ 0x18
  1249  0018'                    	ds	1
  1250                           	global	??_isr
  1251  0019'                    ??_isr: ;@ 0x19
  1252                           	global	?_main
  1253  0019'                    ?_main: ;@ 0x19
  1254  0019'                    	ds	4
  1255                           ;Data sizes: Strings 0, constant 256, data 0, bss 30, persistent 1 stack 0
  1256                           ;Auto spaces:   Size  Autos    Used
  1257                           ; COMMON          14      4      11
  1258                           ; BANK0           80     29      53
  1259                           ; BANK1           32      1       1
  1260                           
  1261                           
  1262                           ;Pointer list with targets:
  1263                           
  1264                           ;strcmp@y	PTR unsigned char  size(1); Largest target is 9
  1265                           ;		 -> EEPROMKey(BANK0[9]), 
  1266                           ;strcmp@x	PTR unsigned char  size(1); Largest target is 9
  1267                           ;		 -> iButtonKey(BANK0[9]), 
  1268                           ;CRCCheck@KeyPointer	PTR unsigned char  size(1); Largest target is 9
  1269                           ;		 -> EEPROMKey(BANK0[9]), iButtonKey(BANK0[9]), 
  1270                           
  1271                           
  1272                           ;Main: autosize = 0, tempsize = 0, incstack = 0, save=0
  1273                           
  1274                           
  1275                           ;Call graph:                      Base Space Used Autos Args Refs Density
  1276                           ;_main                                                1    0 8763   0.00
  1277                           ;                                   24 BANK0    1
  1278                           ;          _PowerInit
  1279                           ;            _DelayMs
  1280                           ;         _BuzzerBeep
  1281                           ; _ConfigureMasterKey
  1282                           ;        _WriteEEPROM
  1283                           ;       _ClearAllKeys
  1284                           ;           _ClearKey
  1285                           ;      _LockOperation
  1286                           ;          _GoToSleep
  1287                           ;  _ConfigureMasterKey                                1    0 1662   0.00
  1288                           ;                                   16 BANK0    1
  1289                           ;      _EEPROMReadKey
  1290                           ;           _CRCCheck
  1291                           ;         _BuzzerBeep
  1292                           ;        _ReadiButton
  1293                           ;     _EEPROMWriteKey
  1294                           ;_Wait_With_LED_Blink
  1295                           ;          _GoToSleep
  1296                           ;  _LockOperation                                     4    0 6024   0.00
  1297                           ;                                   20 BANK0    4
  1298                           ;        _ReadiButton
  1299                           ;        _AvailabeKey
  1300                           ;         _BuzzerBeep
  1301                           ;      _ToggleBuzzLED
  1302                           ;_CheckForiButtonDisc
  1303                           ;           _DoorOpen
  1304                           ;      _Configuration
  1305                           ;            _DelayMs
  1306                           ;          _DoorClose
  1307                           ;_InvalidKeyIndicatio
  1308                           ;  _PowerInit                                         0    0    0   0.00
  1309                           ;    _Configuration                                   6    0 3093   0.00
  1310                           ;                                   16 BANK0    4
  1311                           ;         _BuzzerBeep
  1312                           ;_Wait_With_LED_Blink
  1313                           ;        _ReadiButton
  1314                           ;        _AvailabeKey
  1315                           ;      _EEPROMReadKey
  1316                           ;             _strcmp
  1317                           ;           _ClearKey
  1318                           ;           _CRCCheck
  1319                           ;     _EEPROMWriteKey
  1320                           ;       _ClearAllKeys
  1321                           ;            _DelayMs
  1322                           ;          _ToggleLED
  1323                           ;    _DoorOpen                                        2    0  147   0.00
  1324                           ;                                    0 COMMO    2
  1325                           ;            _DelayMs
  1326                           ;    _GoToSleep                                       0    0  108   0.00
  1327                           ;            _DelayMs
  1328                           ;    _ToggleBuzzLED                                   0    0    0   0.00
  1329                           ;    _DoorClose                                       0    0  108   0.00
  1330                           ;            _DelayMs
  1331                           ;    _InvalidKeyIndication                            1    0 1158   0.00
  1332                           ;                                    6 BANK0    1
  1333                           ;            _DelayMs
  1334                           ;        _ReadiButton
  1335                           ;        _AvailabeKey
  1336                           ;      _BuzzerBeep                                    9    1  222   0.00
  1337                           ;                                    6 BANK0   10
  1338                           ;            _DelayMs
  1339                           ;      _Wait_With_LED_Blink                           2    0   84   0.00
  1340                           ;                                    1 COMMO    2
  1341                           ;          _ToggleLED
  1342                           ;_CheckForiButtonDisc
  1343                           ;      _ClearAllKeys                                  3    0  345   0.00
  1344                           ;                                    2 COMMO    1
  1345                           ;                                    7 BANK0    2
  1346                           ; _EEPROMWriteKeyByte
  1347                           ;      _EEPROMWriteKey                                4    0  240   0.00
  1348                           ;                                    0 COMMO    2
  1349                           ;                                    6 BANK0    2
  1350                           ;        _WriteEEPROM
  1351                           ;            _DelayMs
  1352                           ;      _AvailabeKey                                   3    0  411   0.00
  1353                           ;                                    2 BANK0    3
  1354                           ;      _EEPROMReadKey
  1355                           ;             _strcmp
  1356                           ;      _ReadiButton                                   3    0  639   0.00
  1357                           ;                                    1 COMMO    1
  1358                           ;                                    4 BANK0    2
  1359                           ;        _InitiButton
  1360                           ; _WriteByteToiButton
  1361                           ;  _ReadByteToiButton
  1362                           ;           _CRCCheck
  1363                           ;      _ClearKey                                      3    0  264   0.00
  1364                           ;                                    2 COMMO    1
  1365                           ;                                    7 BANK0    2
  1366                           ; _EEPROMWriteKeyByte
  1367                           ;        _strcmp                                      3    1  126   0.00
  1368                           ;                                    0 COMMO    3
  1369                           ;                                    0 BANK0    1
  1370                           ;        _EEPROMWriteKeyByte                          3    0  162   0.00
  1371                           ;                                    0 COMMO    2
  1372                           ;                                    6 BANK0    1
  1373                           ;        _WriteEEPROM
  1374                           ;            _DelayMs
  1375                           ;        _WriteByteToiButton                          3    0  105   0.00
  1376                           ;                                    0 COMMO    1
  1377                           ;                                    0 BANK0    2
  1378                           ;         _delay_10us
  1379                           ;        _CRCCheck                                    5    0  213   0.00
  1380                           ;                                    0 COMMO    1
  1381                           ;                                    0 BANK0    4
  1382                           ;        _EEPROMReadKey                               4    0  132   0.00
  1383                           ;                                    2 COMMO    2
  1384                           ;                                    0 BANK0    2
  1385                           ;         _ReadEEPROM
  1386                           ;        _CheckForiButtonDisconnect                   0    0   30   0.00
  1387                           ;        _InitiButton
  1388                           ;        _ToggleLED                                   0    0    0   0.00
  1389                           ;        _ReadByteToiButton                           5    0  159   0.00
  1390                           ;                                    0 COMMO    1
  1391                           ;                                    0 BANK0    3
  1392                           ;         _delay_10us
  1393                           ;          _ReadEEPROM                                2    0    0   0.00
  1394                           ;                                    0 COMMO    2
  1395                           ;          _DelayMs                                   4    2  108   0.00
  1396                           ;                                    0 BANK0    6
  1397                           ;          _InitiButton                               1    0   30   0.00
  1398                           ;                                    0 COMMO    1
  1399                           ;         _delay_10us
  1400                           ;          _WriteEEPROM                               0    0    0   0.00
  1401                           ;            _delay_10us                              0    0    0   0.00
  1402                           ; Estimated maximum call depth 6
  1403                           ;_isr                                                 5    0    3   0.00
  1404                           ;                                   25 BANK0    4
  1405                           ;                                    0 BANK1    1
  1406                           ; Estimated maximum call depth 0
  1407                           ; Address spaces:
  1408                           
  1409                           ;Name               Size   Autos  Total    Cost      Usage
  1410                           ;BITCOMMON            E      0       0       0        0.0%
  1411                           ;CODE                 0      0       0       0        0.0%
  1412                           ;NULL                 0      0       0       0        0.0%
  1413                           ;COMMON               E      4       B       1       78.6%
  1414                           ;SFR0                 0      0       0       1        0.0%
  1415                           ;BITSFR0              0      0       0       1        0.0%
  1416                           ;SFR1                 0      0       0       2        0.0%
  1417                           ;BITSFR1              0      0       0       2        0.0%
  1418                           ;STACK                0      0       0       2        0.0%
  1419                           ;ABS                  0      0      41       3        0.0%
  1420                           ;BITBANK0            50      0       0       4        0.0%
  1421                           ;BITSFR3              0      0       0       4        0.0%
  1422                           ;SFR3                 0      0       0       4        0.0%
  1423                           ;BANK0               50     1D      35       5       66.3%
  1424                           ;BITSFR2              0      0       0       5        0.0%
  1425                           ;SFR2                 0      0       0       5        0.0%
  1426                           ;BITBANK1            20      0       0       6        0.0%
  1427                           ;BANK1               20      1       1       7        3.1%
  1428                           ;DATA                 0      0      41       8        0.0%
  1429                           ;EEDATA             100      0       0    1000        0.0%
  1430                           
  1431                           	global	_main
  1432                           psect	maintext,local,class=CODE,delta=2
  1433                           global __pmaintext
  1434  0000'                    __pmaintext:
  1435                           
  1436                           ; *************** function _main *****************
  1437                           ; Defined at:
  1438                           ;		line 558 in file "D:\Amit\E-Projects\PIC Projects\CMC\iBUTTON\main.c"
  1439                           ; Parameters:    Size  Location     Type
  1440                           ;		None
  1441                           ; Auto vars:     Size  Location     Type
  1442                           ;  PowerOnBeep     1   24[BANK0 ] unsigned char 
  1443                           ; Return value:  Size  Location     Type
  1444                           ;		None               void
  1445                           ; Registers used:
  1446                           ;		wreg, fsr0l, fsr0h, fsr1l, fsr1h, status,2, status,0, btemp+0, btemp+1, btemp+2, btem
                                 p+3, pclath, cstack
  1447                           ; Tracked objects:
  1448                           ;		On entry : 17F/0
  1449                           ;		On exit  : 0/0
  1450                           ;		Unchanged: 0/0
  1451                           ; Data sizes:     COMMON   BANK0   BANK1
  1452                           ;      Locals:         0       1       0
  1453                           ;      Temp:     0
  1454                           ;      Total:    1
  1455                           ; This function calls:
  1456                           ;		_PowerInit
  1457                           ;		_DelayMs
  1458                           ;		_BuzzerBeep
  1459                           ;		_ConfigureMasterKey
  1460                           ;		_WriteEEPROM
  1461                           ;		_ClearAllKeys
  1462                           ;		_ClearKey
  1463                           ;		_LockOperation
  1464                           ;		_GoToSleep
  1465                           ; This function is called by:
  1466                           ;		Startup code after reset
  1467                           ; This function uses a non-reentrant model
  1468                           ; 
  1469                           psect	maintext
  1470                           	file	"D:\Amit\E-Projects\PIC Projects\CMC\iBUTTON\main.c"
  1471                           	line	558
  1472                           	global	__size_of_main
  1473  003E                     	__size_of_main	equ	__end_of_main-_main
  1474                           ;main.c: 557: void main(void)
  1475                           ;main.c: 558: {
  1476                           	
  1477  0000'                    _main:	
  1478                           	opt stack 6
  1479                           ; Regs used in _main: [allreg]
  1480                           	line	560
  1481                           	
  1482  0000'                    l30001455:	
  1483                           ;main.c: 559: unsigned char PowerOnBeep;
  1484                           ;main.c: 560: PowerInit();
  1485  0000' 2000'              	fcall	_PowerInit
  1486                           	
  1487  0001'                    l30001456:	
  1488                           	line	561
  1489                           ;main.c: 561: PowerOnBeep=0x00;
  1490  0001' 1003               	clrc
  1491  0002' 3000               	movlw	0
  1492  0003' 1803               	btfsc	status,0
  1493  0004' 3001               	movlw	1
  1494  0005' 1283               	bcf	status, 5	;RP0=0, select bank0
  1495  0006' 1303               	bcf	status, 6	;RP1=0, select bank0
  1496  0007' 0098'              	movwf	(main@PowerOnBeep)
  1497                           	
  1498  0008'                    l30001457:	
  1499                           	line	562
  1500                           ;main.c: 562: DelayMs(100);
  1501  0008' 3064               	movlw	low(064h)
  1502  0009' 0084'              	movwf	(?_DelayMs)
  1503  000A' 3000               	movlw	high(064h)
  1504  000B' 0085'              	movwf	((?_DelayMs))+1
  1505  000C' 2000'              	fcall	_DelayMs
  1506                           	
  1507  000D'                    l30001458:	
  1508                           	line	564
  1509                           ;main.c: 564: BuzzerBeep(2,0);
  1510  000D' 1003               	clrc
  1511  000E' 3000               	movlw	0
  1512  000F' 1803               	btfsc	status,0
  1513  0010' 3001               	movlw	1
  1514  0011' 1283               	bcf	status, 5	;RP0=0, select bank0
  1515  0012' 1303               	bcf	status, 6	;RP1=0, select bank0
  1516  0013' 008F'              	movwf	(?_BuzzerBeep)
  1517  0014' 3002               	movlw	(02h)
  1518  0015' 2000'              	fcall	_BuzzerBeep
  1519                           	
  1520  0016'                    l30001459:	
  1521                           	line	568
  1522                           ;main.c: 567: {
  1523                           ;main.c: 568: ConfigureMasterKey(PowerOnBeep);
  1524  0016' 1283               	bcf	status, 5	;RP0=0, select bank0
  1525  0017' 1303               	bcf	status, 6	;RP1=0, select bank0
  1526  0018' 0818'              	movf	(main@PowerOnBeep),w
  1527  0019' 2000'              	fcall	_ConfigureMasterKey
  1528                           	
  1529  001A'                    l30001460:	
  1530                           	line	569
  1531                           ;main.c: 569: PowerOnBeep=0x01;
  1532  001A' 1283               	bcf	status, 5	;RP0=0, select bank0
  1533  001B' 1303               	bcf	status, 6	;RP1=0, select bank0
  1534  001C' 0198'              	clrf	(main@PowerOnBeep)
  1535  001D' 1403               	bsf	status,0
  1536  001E' 0D98'              	rlf	(main@PowerOnBeep),f
  1537                           	
  1538  001F'                    l30001461:	
  1539                           	line	573
  1540                           ;main.c: 572: {
  1541                           ;main.c: 573: if(!RA5)
  1542  001F' 1283               	bcf	status, 5	;RP0=0, select bank0
  1543  0020' 1303               	bcf	status, 6	;RP1=0, select bank0
  1544  0021' 1A85               	btfsc	(45/8),(45)&7
  1545  0022' 2824'              	goto	u1881
  1546  0023' 2825'              	goto	u1880
  1547  0024'                    u1881:
  1548  0024' 283A'              	goto	l30001467
  1549  0025'                    u1880:
  1550                           	
  1551  0025'                    l30001462:	
  1552                           	line	575
  1553                           ;main.c: 574: {
  1554                           ;main.c: 575: BuzzerBeep(3,1);
  1555  0025' 018F'              	clrf	(?_BuzzerBeep)
  1556  0026' 1403               	bsf	status,0
  1557  0027' 0D8F'              	rlf	(?_BuzzerBeep),f
  1558  0028' 3003               	movlw	(03h)
  1559  0029' 2000'              	fcall	_BuzzerBeep
  1560                           	
  1561  002A'                    l30001463:	
  1562                           	line	576
  1563  002A' 30FF               	movlw	low(0FFh)
  1564  002B' 1283               	bcf	status, 5	;RP0=0, select bank0
  1565  002C' 1303               	bcf	status, 6	;RP1=0, select bank0
  1566  002D' 0080'              	movwf	(_DataEEAddr)
  1567  002E' 3000               	movlw	high(0FFh)
  1568  002F' 0081'              	movwf	((_DataEEAddr))+1
  1569                           	
  1570  0030'                    l30001464:	
  1571  0030' 3000               	movlw	low(0)
  1572  0031' 0082'              	movwf	(_DataEEData)
  1573  0032' 3000               	movlw	high(0)
  1574  0033' 0083'              	movwf	((_DataEEData))+1
  1575  0034' 2000'              	fcall	_WriteEEPROM
  1576                           	
  1577  0035'                    l30001465:	
  1578                           	line	577
  1579                           ;main.c: 577: ClearAllKeys(1);
  1580  0035' 3001               	movlw	(01h)
  1581  0036' 2000'              	fcall	_ClearAllKeys
  1582                           	
  1583  0037'                    l30001466:	
  1584                           	line	578
  1585                           ;main.c: 578: ClearKey(0);
  1586  0037' 3000               	movlw	(0)
  1587  0038' 2000'              	fcall	_ClearKey
  1588  0039' 2816'              	goto	l30001459
  1589                           	
  1590  003A'                    l30001467:	
  1591                           	line	581
  1592                           ;main.c: 580: }
  1593                           ;main.c: 581: LockOperation();
  1594  003A' 2000'              	fcall	_LockOperation
  1595                           	
  1596  003B'                    l30001468:	
  1597                           	line	582
  1598                           ;main.c: 582: GoToSleep();
  1599  003B' 2000'              	fcall	_GoToSleep
  1600  003C' 281F'              	goto	l30001461
  1601                           	global	start
  1602  003D' 2800'              	ljmp	start
  1603                           	opt stack 0
  1604                           GLOBAL	__end_of_main
  1605  003E'                    	__end_of_main:
  1606                           ; =============== function _main ends ============
  1607                           
  1608                           psect	maintext
  1609                           	line	585
  1610                           	signat	_main,88
  1611                           	global	_ConfigureMasterKey
  1612                           psect	text246,local,class=CODE,delta=2
  1613                           global __ptext246
  1614  0000'                    __ptext246:
  1615                           
  1616                           ; *************** function _ConfigureMasterKey *****************
  1617                           ; Defined at:
  1618                           ;		line 420 in file "D:\Amit\E-Projects\PIC Projects\CMC\iBUTTON\main.c"
  1619                           ; Parameters:    Size  Location     Type
  1620                           ;  PowerOnBeep     1    wreg     unsigned char 
  1621                           ; Auto vars:     Size  Location     Type
  1622                           ;  PowerOnBeep     1   16[BANK0 ] unsigned char 
  1623                           ; Return value:  Size  Location     Type
  1624                           ;		None               void
  1625                           ; Registers used:
  1626                           ;		wreg, fsr0l, fsr0h, fsr1l, fsr1h, status,2, status,0, btemp+0, btemp+1, btemp+2, btem
                                 p+3, pclath, cstack
  1627                           ; Tracked objects:
  1628                           ;		On entry : 0/0
  1629                           ;		On exit  : 0/0
  1630                           ;		Unchanged: 0/0
  1631                           ; Data sizes:     COMMON   BANK0   BANK1
  1632                           ;      Locals:         0       1       0
  1633                           ;      Temp:     0
  1634                           ;      Total:    1
  1635                           ; This function calls:
  1636                           ;		_EEPROMReadKey
  1637                           ;		_CRCCheck
  1638                           ;		_BuzzerBeep
  1639                           ;		_ReadiButton
  1640                           ;		_EEPROMWriteKey
  1641                           ;		_Wait_With_LED_Blink
  1642                           ;		_GoToSleep
  1643                           ; This function is called by:
  1644                           ;		_main
  1645                           ; This function uses a non-reentrant model
  1646                           ; 
  1647                           psect	text246
  1648                           	file	"D:\Amit\E-Projects\PIC Projects\CMC\iBUTTON\main.c"
  1649                           	line	420
  1650                           	global	__size_of_ConfigureMasterKey
  1651  0039                     	__size_of_ConfigureMasterKey	equ	__end_of_ConfigureMasterKey-_ConfigureMasterKey
  1652                           ;main.c: 419: void ConfigureMasterKey(unsigned char PowerOnBeep)
  1653                           ;main.c: 420: {
  1654                           	
  1655  0000'                    _ConfigureMasterKey:	
  1656                           	opt stack 5
  1657                           ; Regs used in _ConfigureMasterKey: [allreg]
  1658                           ;ConfigureMasterKey@PowerOnBeep stored from wreg
  1659  0000' 1283               	bcf	status, 5	;RP0=0, select bank0
  1660  0001' 1303               	bcf	status, 6	;RP1=0, select bank0
  1661  0002' 0090'              	movwf	(ConfigureMasterKey@PowerOnBeep)
  1662                           	
  1663  0003'                    l30001469:	
  1664                           	line	421
  1665                           ;main.c: 421: EEPROMReadKey(0);
  1666  0003' 3000               	movlw	(0)
  1667  0004' 2000'              	fcall	_EEPROMReadKey
  1668                           	line	422
  1669                           ;main.c: 422: if(CRCCheck(EEPROMKey) == 0)
  1670  0005' 3000'              	movlw	((_EEPROMKey))&0ffh
  1671  0006' 2000'              	fcall	_CRCCheck
  1672  0007' 3800               	iorlw	0
  1673  0008' 1D03               	skipz
  1674  0009' 280B'              	goto	u1891
  1675  000A' 280C'              	goto	u1890
  1676  000B'                    u1891:
  1677  000B' 2838'              	goto	l147
  1678  000C'                    u1890:
  1679                           	
  1680  000C'                    l30001470:	
  1681                           	line	424
  1682                           ;main.c: 423: {
  1683                           ;main.c: 424: if(!PowerOnBeep)
  1684  000C' 1283               	bcf	status, 5	;RP0=0, select bank0
  1685  000D' 1303               	bcf	status, 6	;RP1=0, select bank0
  1686  000E' 0890'              	movf	(ConfigureMasterKey@PowerOnBeep),f
  1687  000F' 1D03               	skipz
  1688  0010' 2812'              	goto	u1901
  1689  0011' 2813'              	goto	u1900
  1690  0012'                    u1901:
  1691  0012' 2818'              	goto	l30001472
  1692  0013'                    u1900:
  1693                           	
  1694  0013'                    l30001471:	
  1695                           	line	425
  1696                           ;main.c: 425: BuzzerBeep(3,1);
  1697  0013' 018F'              	clrf	(?_BuzzerBeep)
  1698  0014' 1403               	bsf	status,0
  1699  0015' 0D8F'              	rlf	(?_BuzzerBeep),f
  1700  0016' 3003               	movlw	(03h)
  1701  0017' 2000'              	fcall	_BuzzerBeep
  1702                           	
  1703  0018'                    l30001472:	
  1704                           	line	429
  1705                           ;main.c: 428: {
  1706                           ;main.c: 429: if(ReadiButton())
  1707  0018' 2000'              	fcall	_ReadiButton
  1708  0019' 3A00               	xorlw	0
  1709  001A' 1903               	skipnz
  1710  001B' 281D'              	goto	u1911
  1711  001C' 281E'              	goto	u1910
  1712  001D'                    u1911:
  1713  001D' 282B'              	goto	l153
  1714  001E'                    u1910:
  1715                           	
  1716  001E'                    l30001473:	
  1717                           	line	431
  1718                           ;main.c: 430: {
  1719                           ;main.c: 431: EEPROMWriteKey(0);
  1720  001E' 3000               	movlw	(0)
  1721  001F' 2000'              	fcall	_EEPROMWriteKey
  1722                           	
  1723  0020'                    l30001474:	
  1724                           	line	432
  1725                           ;main.c: 432: BuzzerBeep(3,0);
  1726  0020' 1003               	clrc
  1727  0021' 3000               	movlw	0
  1728  0022' 1803               	btfsc	status,0
  1729  0023' 3001               	movlw	1
  1730  0024' 1283               	bcf	status, 5	;RP0=0, select bank0
  1731  0025' 1303               	bcf	status, 6	;RP1=0, select bank0
  1732  0026' 008F'              	movwf	(?_BuzzerBeep)
  1733  0027' 3003               	movlw	(03h)
  1734  0028' 2000'              	fcall	_BuzzerBeep
  1735                           	
  1736  0029'                    l30001475:	
  1737                           	line	434
  1738                           ;main.c: 434: Wait_With_LED_Blink();
  1739  0029' 2000'              	fcall	_Wait_With_LED_Blink
  1740  002A' 2838'              	goto	l147
  1741                           	
  1742  002B'                    l153:	
  1743                           	line	437
  1744                           ;main.c: 436: }
  1745                           ;main.c: 437: if(RA5 == 0)
  1746  002B' 1283               	bcf	status, 5	;RP0=0, select bank0
  1747  002C' 1303               	bcf	status, 6	;RP1=0, select bank0
  1748  002D' 1A85               	btfsc	(45/8),(45)&7
  1749  002E' 2830'              	goto	u1921
  1750  002F' 2831'              	goto	u1920
  1751  0030'                    u1921:
  1752  0030' 2836'              	goto	l154
  1753  0031'                    u1920:
  1754                           	
  1755  0031'                    l30001477:	
  1756                           	line	438
  1757                           ;main.c: 438: BuzzerBeep(3,1);
  1758  0031' 018F'              	clrf	(?_BuzzerBeep)
  1759  0032' 1403               	bsf	status,0
  1760  0033' 0D8F'              	rlf	(?_BuzzerBeep),f
  1761  0034' 3003               	movlw	(03h)
  1762  0035' 2000'              	fcall	_BuzzerBeep
  1763                           	
  1764  0036'                    l154:	
  1765                           	line	440
  1766                           ;main.c: 440: GoToSleep();
  1767  0036' 2000'              	fcall	_GoToSleep
  1768  0037' 2818'              	goto	l30001472
  1769                           	
  1770  0038'                    l147:	
  1771  0038' 0008               	return
  1772                           	opt stack 0
  1773                           GLOBAL	__end_of_ConfigureMasterKey
  1774  0039'                    	__end_of_ConfigureMasterKey:
  1775                           ; =============== function _ConfigureMasterKey ends ============
  1776                           
  1777                           psect	text247,local,class=CODE,delta=2
  1778                           global __ptext247
  1779  0000'                    __ptext247:
  1780                           	line	443
  1781                           	signat	_ConfigureMasterKey,4216
  1782                           	global	_LockOperation
  1783                           
  1784                           ; *************** function _LockOperation *****************
  1785                           ; Defined at:
  1786                           ;		line 446 in file "D:\Amit\E-Projects\PIC Projects\CMC\iBUTTON\main.c"
  1787                           ; Parameters:    Size  Location     Type
  1788                           ;		None
  1789                           ; Auto vars:     Size  Location     Type
  1790                           ;  i               2   21[BANK0 ] unsigned int 
  1791                           ;  ShouldCheckC    1   23[BANK0 ] unsigned char 
  1792                           ; Return value:  Size  Location     Type
  1793                           ;		None               void
  1794                           ; Registers used:
  1795                           ;		wreg, fsr0l, fsr0h, fsr1l, fsr1h, status,2, status,0, btemp+0, btemp+1, btemp+2, btem
                                 p+3, pclath, cstack
  1796                           ; Tracked objects:
  1797                           ;		On entry : 0/0
  1798                           ;		On exit  : 0/0
  1799                           ;		Unchanged: 0/0
  1800                           ; Data sizes:     COMMON   BANK0   BANK1
  1801                           ;      Locals:         0       4       0
  1802                           ;      Temp:     1
  1803                           ;      Total:    4
  1804                           ; This function calls:
  1805                           ;		_ReadiButton
  1806                           ;		_AvailabeKey
  1807                           ;		_BuzzerBeep
  1808                           ;		_ToggleBuzzLED
  1809                           ;		_CheckForiButtonDisconnect
  1810                           ;		_DoorOpen
  1811                           ;		_Configuration
  1812                           ;		_DelayMs
  1813                           ;		_DoorClose
  1814                           ;		_InvalidKeyIndication
  1815                           ; This function is called by:
  1816                           ;		_main
  1817                           ; This function uses a non-reentrant model
  1818                           ; 
  1819                           psect	text247
  1820                           	file	"D:\Amit\E-Projects\PIC Projects\CMC\iBUTTON\main.c"
  1821                           	line	446
  1822                           	global	__size_of_LockOperation
  1823  00D4                     	__size_of_LockOperation	equ	__end_of_LockOperation-_LockOperation
  1824                           ;main.c: 445: void LockOperation(void)
  1825                           ;main.c: 446: {
  1826                           	
  1827  0000'                    _LockOperation:	
  1828                           	opt stack 5
  1829                           ; Regs used in _LockOperation: [allreg]
  1830                           	line	450
  1831                           	
  1832  0000'                    l30001415:	
  1833                           ;main.c: 447: unsigned int i;
  1834                           ;main.c: 448: unsigned char ShouldCheckConfig;
  1835                           ;main.c: 450: if(ReadiButton())
  1836  0000' 2000'              	fcall	_ReadiButton
  1837  0001' 3A00               	xorlw	0
  1838  0002' 1903               	skipnz
  1839  0003' 2805'              	goto	u1721
  1840  0004' 2806'              	goto	u1720
  1841  0005'                    u1721:
  1842  0005' 28D3'              	goto	l155
  1843  0006'                    u1720:
  1844                           	
  1845  0006'                    l30001416:	
  1846                           	line	452
  1847                           ;main.c: 451: {
  1848                           ;main.c: 452: MatchKey = AvailabeKey();
  1849  0006' 2000'              	fcall	_AvailabeKey
  1850  0007' 0083'              	movwf	(_MatchKey)
  1851                           	
  1852  0008'                    l30001417:	
  1853                           	line	453
  1854                           ;main.c: 453: if(MatchKey)
  1855  0008' 0803'              	movf	(_MatchKey),w
  1856  0009' 1D03               	skipz
  1857  000A' 280C'              	goto	u1730
  1858  000B' 289D'              	goto	l30001447
  1859  000C'                    u1730:
  1860                           	
  1861  000C'                    l30001418:	
  1862                           	line	455
  1863                           ;main.c: 454: {
  1864                           ;main.c: 455: RC0=0x01;
  1865  000C' 1283               	bcf	status, 5	;RP0=0, select bank0
  1866  000D' 1303               	bcf	status, 6	;RP1=0, select bank0
  1867  000E' 1407               	bsf	(56/8),(56)&7
  1868                           	
  1869  000F'                    l30001419:	
  1870                           	line	456
  1871                           ;main.c: 456: BuzzerBeep(1,0);
  1872  000F' 1003               	clrc
  1873  0010' 3000               	movlw	0
  1874  0011' 1803               	btfsc	status,0
  1875  0012' 3001               	movlw	1
  1876  0013' 008F'              	movwf	(?_BuzzerBeep)
  1877  0014' 3001               	movlw	(01h)
  1878  0015' 2000'              	fcall	_BuzzerBeep
  1879                           	
  1880  0016'                    l30001420:	
  1881                           	line	458
  1882                           ;main.c: 458: TimeCounter=0x00;
  1883  0016' 1003               	clrc
  1884  0017' 3000               	movlw	0
  1885  0018' 1803               	btfsc	status,0
  1886  0019' 3001               	movlw	1
  1887  001A' 0084'              	movwf	(_TimeCounter)
  1888                           	
  1889  001B'                    l30001421:	
  1890                           	line	459
  1891                           ;main.c: 459: ShouldCheckConfig=0x00;
  1892  001B' 1003               	clrc
  1893  001C' 3000               	movlw	0
  1894  001D' 1803               	btfsc	status,0
  1895  001E' 3001               	movlw	1
  1896  001F' 1283               	bcf	status, 5	;RP0=0, select bank0
  1897  0020' 1303               	bcf	status, 6	;RP1=0, select bank0
  1898  0021' 0097'              	movwf	(LockOperation@ShouldCheckConfig)
  1899                           	
  1900  0022'                    l30001422:	
  1901                           	line	460
  1902                           ;main.c: 460: SlaveConfigured=0x00;
  1903  0022' 1003               	clrc
  1904  0023' 3000               	movlw	0
  1905  0024' 1803               	btfsc	status,0
  1906  0025' 3001               	movlw	1
  1907  0026' 0084'              	movwf	(_SlaveConfigured)
  1908                           	
  1909  0027'                    l30001423:	
  1910                           	line	461
  1911                           ;main.c: 461: ToggleSkipFlag=0x01;
  1912  0027' 0185'              	clrf	(_ToggleSkipFlag)
  1913  0028' 1403               	bsf	status,0
  1914  0029' 0D85'              	rlf	(_ToggleSkipFlag),f
  1915  002A' 2888'              	goto	l30001443
  1916                           	
  1917  002B'                    l30001424:	
  1918                           	line	464
  1919                           ;main.c: 463: {
  1920                           ;main.c: 464: if(LowBatt)
  1921  002B' 0802'              	movf	(_LowBatt),w
  1922  002C' 1D03               	skipz
  1923  002D' 282F'              	goto	u1740
  1924  002E' 2830'              	goto	l30001426
  1925  002F'                    u1740:
  1926                           	
  1927  002F'                    l30001425:	
  1928                           	line	465
  1929                           ;main.c: 465: ToggleBuzzLED();
  1930  002F' 2000'              	fcall	_ToggleBuzzLED
  1931                           	
  1932  0030'                    l30001426:	
  1933                           	line	467
  1934                           ;main.c: 467: if(ShouldCheckConfig == 0)
  1935  0030' 1283               	bcf	status, 5	;RP0=0, select bank0
  1936  0031' 1303               	bcf	status, 6	;RP1=0, select bank0
  1937  0032' 0897'              	movf	(LockOperation@ShouldCheckConfig),f
  1938  0033' 1D03               	skipz
  1939  0034' 2836'              	goto	u1751
  1940  0035' 2837'              	goto	u1750
  1941  0036'                    u1751:
  1942  0036' 2848'              	goto	l30001430
  1943  0037'                    u1750:
  1944                           	
  1945  0037'                    l30001427:	
  1946                           	line	469
  1947                           ;main.c: 468: {
  1948                           ;main.c: 469: if((MatchKey == 2) && (!CheckForiButtonDisconnect()))
  1949  0037' 0803'              	movf	(_MatchKey),w
  1950  0038' 3A02               	xorlw	02h
  1951  0039' 1D03               	skipz
  1952  003A' 283C'              	goto	u1761
  1953  003B' 283D'              	goto	u1760
  1954  003C'                    u1761:
  1955  003C' 2848'              	goto	l30001430
  1956  003D'                    u1760:
  1957                           	
  1958  003D'                    l30001428:	
  1959  003D' 2000'              	fcall	_CheckForiButtonDisconnect
  1960  003E' 3800               	iorlw	0
  1961  003F' 1D03               	skipz
  1962  0040' 2842'              	goto	u1771
  1963  0041' 2843'              	goto	u1770
  1964  0042'                    u1771:
  1965  0042' 2848'              	goto	l30001430
  1966  0043'                    u1770:
  1967                           	
  1968  0043'                    l30001429:	
  1969                           	line	471
  1970                           ;main.c: 470: {
  1971                           ;main.c: 471: ShouldCheckConfig=0x01;
  1972  0043' 1283               	bcf	status, 5	;RP0=0, select bank0
  1973  0044' 1303               	bcf	status, 6	;RP1=0, select bank0
  1974  0045' 0197'              	clrf	(LockOperation@ShouldCheckConfig)
  1975  0046' 1403               	bsf	status,0
  1976  0047' 0D97'              	rlf	(LockOperation@ShouldCheckConfig),f
  1977                           	
  1978  0048'                    l30001430:	
  1979                           	line	475
  1980                           ;main.c: 472: }
  1981                           ;main.c: 473: }
  1982                           ;main.c: 475: if(RC2==1)
  1983  0048' 1283               	bcf	status, 5	;RP0=0, select bank0
  1984  0049' 1303               	bcf	status, 6	;RP1=0, select bank0
  1985  004A' 1D07               	btfss	(58/8),(58)&7
  1986  004B' 284D'              	goto	u1781
  1987  004C' 284E'              	goto	u1780
  1988  004D'                    u1781:
  1989  004D' 2850'              	goto	l164
  1990  004E'                    u1780:
  1991                           	
  1992  004E'                    l30001431:	
  1993                           	line	477
  1994                           ;main.c: 476: {
  1995                           ;main.c: 477: DoorOpen();
  1996  004E' 2000'              	fcall	_DoorOpen
  1997  004F' 2858'              	goto	l30001434
  1998                           	
  1999  0050'                    l164:	
  2000                           	line	481
  2001                           ;main.c: 479: else
  2002                           ;main.c: 480: {
  2003                           ;main.c: 481: RC0=0x00;
  2004  0050' 1007               	bcf	(56/8),(56)&7
  2005                           	
  2006  0051'                    l30001432:	
  2007                           	line	482
  2008                           ;main.c: 482: if(MatchKey!=2)
  2009  0051' 0803'              	movf	(_MatchKey),w
  2010  0052' 3A02               	xorlw	02h
  2011  0053' 1903               	skipnz
  2012  0054' 2856'              	goto	u1791
  2013  0055' 2857'              	goto	u1790
  2014  0056'                    u1791:
  2015  0056' 2858'              	goto	l30001434
  2016  0057'                    u1790:
  2017  0057' 288E'              	goto	l160
  2018                           	
  2019  0058'                    l30001434:	
  2020                           	line	488
  2021                           ;main.c: 485: }
  2022                           ;main.c: 486: }
  2023                           ;main.c: 488: if(ReadiButton() && ShouldCheckConfig)
  2024  0058' 2000'              	fcall	_ReadiButton
  2025  0059' 3A00               	xorlw	0
  2026  005A' 1903               	skipnz
  2027  005B' 285D'              	goto	u1801
  2028  005C' 285E'              	goto	u1800
  2029  005D'                    u1801:
  2030  005D' 2873'              	goto	l30001440
  2031  005E'                    u1800:
  2032                           	
  2033  005E'                    l30001435:	
  2034  005E' 1283               	bcf	status, 5	;RP0=0, select bank0
  2035  005F' 1303               	bcf	status, 6	;RP1=0, select bank0
  2036  0060' 0817'              	movf	(LockOperation@ShouldCheckConfig),w
  2037  0061' 1D03               	skipz
  2038  0062' 2864'              	goto	u1810
  2039  0063' 2873'              	goto	l30001440
  2040  0064'                    u1810:
  2041                           	
  2042  0064'                    l30001436:	
  2043                           	line	490
  2044                           ;main.c: 489: {
  2045                           ;main.c: 490: MatchKey = AvailabeKey();
  2046  0064' 2000'              	fcall	_AvailabeKey
  2047  0065' 0083'              	movwf	(_MatchKey)
  2048                           	
  2049  0066'                    l30001437:	
  2050                           	line	491
  2051                           ;main.c: 491: if(MatchKey == 2)
  2052  0066' 0803'              	movf	(_MatchKey),w
  2053  0067' 3A02               	xorlw	02h
  2054  0068' 1D03               	skipz
  2055  0069' 286B'              	goto	u1821
  2056  006A' 286C'              	goto	u1820
  2057  006B'                    u1821:
  2058  006B' 2873'              	goto	l30001440
  2059  006C'                    u1820:
  2060                           	
  2061  006C'                    l30001438:	
  2062                           	line	493
  2063                           ;main.c: 492: {
  2064                           ;main.c: 493: Configuration();
  2065  006C' 2000'              	fcall	_Configuration
  2066                           	
  2067  006D'                    l30001439:	
  2068                           	line	494
  2069                           ;main.c: 494: SlaveConfigured=0x01;
  2070  006D' 1283               	bcf	status, 5	;RP0=0, select bank0
  2071  006E' 1303               	bcf	status, 6	;RP1=0, select bank0
  2072  006F' 0184'              	clrf	(_SlaveConfigured)
  2073  0070' 1403               	bsf	status,0
  2074  0071' 0D84'              	rlf	(_SlaveConfigured),f
  2075  0072' 288E'              	goto	l160
  2076                           	
  2077  0073'                    l30001440:	
  2078                           	line	498
  2079                           ;main.c: 496: }
  2080                           ;main.c: 497: }
  2081                           ;main.c: 498: DelayMs(30);
  2082  0073' 301E               	movlw	low(01Eh)
  2083  0074' 1283               	bcf	status, 5	;RP0=0, select bank0
  2084  0075' 1303               	bcf	status, 6	;RP1=0, select bank0
  2085  0076' 0084'              	movwf	(?_DelayMs)
  2086  0077' 3000               	movlw	high(01Eh)
  2087  0078' 0085'              	movwf	((?_DelayMs))+1
  2088  0079' 2000'              	fcall	_DelayMs
  2089                           	
  2090  007A'                    l30001441:	
  2091                           	line	499
  2092                           ;main.c: 499: RC1=0x00;
  2093  007A' 1283               	bcf	status, 5	;RP0=0, select bank0
  2094  007B' 1303               	bcf	status, 6	;RP1=0, select bank0
  2095  007C' 1087               	bcf	(57/8),(57)&7
  2096                           	line	500
  2097                           ;main.c: 500: DelayMs(170);
  2098  007D' 30AA               	movlw	low(0AAh)
  2099  007E' 0084'              	movwf	(?_DelayMs)
  2100  007F' 3000               	movlw	high(0AAh)
  2101  0080' 0085'              	movwf	((?_DelayMs))+1
  2102  0081' 2000'              	fcall	_DelayMs
  2103                           	
  2104  0082'                    l30001442:	
  2105                           	line	501
  2106                           ;main.c: 501: TimeCounter++;
  2107  0082' 3001               	movlw	(01h)
  2108  0083' 1283               	bcf	status, 5	;RP0=0, select bank0
  2109  0084' 1303               	bcf	status, 6	;RP1=0, select bank0
  2110  0085' 0094'              	movwf	(??_LockOperation+0+0)
  2111  0086' 0814'              	movf	(??_LockOperation+0+0),w
  2112  0087' 0784'              	addwf	(_TimeCounter),f
  2113                           	
  2114  0088'                    l30001443:	
  2115                           	line	462
  2116  0088' 3005               	movlw	(05h)
  2117  0089' 0204'              	subwf	(_TimeCounter),w
  2118  008A' 1C03               	skipc
  2119  008B' 288D'              	goto	u1831
  2120  008C' 288E'              	goto	u1830
  2121  008D'                    u1831:
  2122  008D' 282B'              	goto	l30001424
  2123  008E'                    u1830:
  2124                           	
  2125  008E'                    l160:	
  2126                           	line	503
  2127                           ;main.c: 502: }
  2128                           ;main.c: 503: RC1=0x00;
  2129  008E' 1087               	bcf	(57/8),(57)&7
  2130                           	line	504
  2131                           ;main.c: 504: RC0=0x00;
  2132  008F' 1007               	bcf	(56/8),(56)&7
  2133                           	
  2134  0090'                    l30001444:	
  2135                           	line	505
  2136                           ;main.c: 505: DoorClose();
  2137  0090' 2000'              	fcall	_DoorClose
  2138                           	
  2139  0091'                    l30001445:	
  2140                           	line	507
  2141  0091' 2000'              	fcall	_CheckForiButtonDisconnect
  2142  0092' 3800               	iorlw	0
  2143  0093' 1D03               	skipz
  2144  0094' 2896'              	goto	u1841
  2145  0095' 2897'              	goto	u1840
  2146  0096'                    u1841:
  2147  0096' 2891'              	goto	l30001445
  2148  0097'                    u1840:
  2149                           	
  2150  0097'                    l30001446:	
  2151                           	line	508
  2152                           ;main.c: 508: InvalidKeyCount=0x00;
  2153  0097' 1003               	clrc
  2154  0098' 3000               	movlw	0
  2155  0099' 1803               	btfsc	status,0
  2156  009A' 3001               	movlw	1
  2157  009B' 0081'              	movwf	(_InvalidKeyCount)
  2158  009C' 28D3'              	goto	l155
  2159                           	
  2160  009D'                    l30001447:	
  2161                           	line	512
  2162                           ;main.c: 510: else
  2163                           ;main.c: 511: {
  2164                           ;main.c: 512: if((++InvalidKeyCount)>2)
  2165  009D' 3001               	movlw	(01h)
  2166  009E' 1283               	bcf	status, 5	;RP0=0, select bank0
  2167  009F' 1303               	bcf	status, 6	;RP1=0, select bank0
  2168  00A0' 0094'              	movwf	(??_LockOperation+0+0)
  2169  00A1' 0814'              	movf	(??_LockOperation+0+0),w
  2170  00A2' 0781'              	addwf	(_InvalidKeyCount),f
  2171  00A3' 3003               	movlw	(03h)
  2172  00A4' 0200'              	subwf	((_InvalidKeyCount))&07fh,w
  2173  00A5' 1C03               	skipc
  2174  00A6' 28A8'              	goto	u1851
  2175  00A7' 28A9'              	goto	u1850
  2176  00A8'                    u1851:
  2177  00A8' 28B0'              	goto	l30001450
  2178  00A9'                    u1850:
  2179                           	
  2180  00A9'                    l30001448:	
  2181                           	line	514
  2182                           ;main.c: 513: {
  2183                           ;main.c: 514: InvalidKeyCount = 0;
  2184  00A9' 1003               	clrc
  2185  00AA' 3000               	movlw	0
  2186  00AB' 1803               	btfsc	status,0
  2187  00AC' 3001               	movlw	1
  2188  00AD' 0081'              	movwf	(_InvalidKeyCount)
  2189                           	
  2190  00AE'                    l30001449:	
  2191                           	line	515
  2192                           ;main.c: 515: InvalidKeyIndication();
  2193  00AE' 2000'              	fcall	_InvalidKeyIndication
  2194  00AF' 28CD'              	goto	l30001454
  2195                           	
  2196  00B0'                    l30001450:	
  2197                           	line	519
  2198                           ;main.c: 517: else
  2199                           ;main.c: 518: {
  2200                           ;main.c: 519: for(i=0;i<4;i++)
  2201  00B0' 3000               	movlw	low(0)
  2202  00B1' 0095'              	movwf	(LockOperation@i)
  2203  00B2' 3000               	movlw	high(0)
  2204  00B3' 0096'              	movwf	((LockOperation@i))+1
  2205                           	
  2206  00B4'                    l30001452:	
  2207                           	line	521
  2208                           ;main.c: 520: {
  2209                           ;main.c: 521: ToggleBuzzLED();
  2210  00B4' 2000'              	fcall	_ToggleBuzzLED
  2211                           	
  2212  00B5'                    l30001453:	
  2213                           	line	522
  2214                           ;main.c: 522: DelayMs(125);
  2215  00B5' 307D               	movlw	low(07Dh)
  2216  00B6' 1283               	bcf	status, 5	;RP0=0, select bank0
  2217  00B7' 1303               	bcf	status, 6	;RP1=0, select bank0
  2218  00B8' 0084'              	movwf	(?_DelayMs)
  2219  00B9' 3000               	movlw	high(07Dh)
  2220  00BA' 0085'              	movwf	((?_DelayMs))+1
  2221  00BB' 2000'              	fcall	_DelayMs
  2222                           	line	519
  2223  00BC' 3001               	movlw	low(01h)
  2224  00BD' 1283               	bcf	status, 5	;RP0=0, select bank0
  2225  00BE' 1303               	bcf	status, 6	;RP1=0, select bank0
  2226  00BF' 0795'              	addwf	(LockOperation@i),f
  2227  00C0' 1803               	skipnc
  2228  00C1' 0A96'              	incf	(LockOperation@i+1),f
  2229  00C2' 3000               	movlw	high(01h)
  2230  00C3' 0796'              	addwf	(LockOperation@i+1),f
  2231  00C4' 3000               	movlw	high(04h)
  2232  00C5' 0216'              	subwf	(LockOperation@i+1),w
  2233  00C6' 3004               	movlw	low(04h)
  2234  00C7' 1903               	skipnz
  2235  00C8' 0215'              	subwf	(LockOperation@i),w
  2236  00C9' 1C03               	skipc
  2237  00CA' 28CC'              	goto	u1861
  2238  00CB' 28CD'              	goto	u1860
  2239  00CC'                    u1861:
  2240  00CC' 28B4'              	goto	l30001452
  2241  00CD'                    u1860:
  2242                           	
  2243  00CD'                    l30001454:	
  2244                           	line	525
  2245  00CD' 2000'              	fcall	_CheckForiButtonDisconnect
  2246  00CE' 3800               	iorlw	0
  2247  00CF' 1D03               	skipz
  2248  00D0' 28D2'              	goto	u1871
  2249  00D1' 28D3'              	goto	u1870
  2250  00D2'                    u1871:
  2251  00D2' 28CD'              	goto	l30001454
  2252  00D3'                    u1870:
  2253                           	
  2254  00D3'                    l155:	
  2255  00D3' 0008               	return
  2256                           	opt stack 0
  2257                           GLOBAL	__end_of_LockOperation
  2258  00D4'                    	__end_of_LockOperation:
  2259                           ; =============== function _LockOperation ends ============
  2260                           
  2261                           psect	text248,local,class=CODE,delta=2
  2262                           global __ptext248
  2263  0000'                    __ptext248:
  2264                           	line	528
  2265                           	signat	_LockOperation,88
  2266                           	global	_PowerInit
  2267                           
  2268                           ; *************** function _PowerInit *****************
  2269                           ; Defined at:
  2270                           ;		line 19 in file "D:\Amit\E-Projects\PIC Projects\CMC\iBUTTON\main.c"
  2271                           ; Parameters:    Size  Location     Type
  2272                           ;		None
  2273                           ; Auto vars:     Size  Location     Type
  2274                           ;		None
  2275                           ; Return value:  Size  Location     Type
  2276                           ;		None               void
  2277                           ; Registers used:
  2278                           ;		wreg, status,2, status,0
  2279                           ; Tracked objects:
  2280                           ;		On entry : 0/0
  2281                           ;		On exit  : 0/0
  2282                           ;		Unchanged: 0/0
  2283                           ; Data sizes:     COMMON   BANK0   BANK1
  2284                           ;      Locals:         0       0       0
  2285                           ;      Temp:     0
  2286                           ;      Total:    0
  2287                           ; This function calls:
  2288                           ;		Nothing
  2289                           ; This function is called by:
  2290                           ;		_main
  2291                           ; This function uses a non-reentrant model
  2292                           ; 
  2293                           psect	text248
  2294                           	file	"D:\Amit\E-Projects\PIC Projects\CMC\iBUTTON\main.c"
  2295                           	line	19
  2296                           	global	__size_of_PowerInit
  2297  0052                     	__size_of_PowerInit	equ	__end_of_PowerInit-_PowerInit
  2298                           ;main.c: 14: unsigned char InvalidKeyCount = 0;
  2299                           ;main.c: 16: asm("\tpsect config,class=CONFIG,delta=2"); asm("\tdw ""0x3FFC & 0x3FF7 & 0
                                 x3FFF & 0x3FDF & 0x3FBF & 0x3CFF & 0x3BFF & 0x37FF");
  2300                           ;main.c: 18: void PowerInit(void)
  2301                           ;main.c: 19: {
  2302                           	
  2303  0000'                    _PowerInit:	
  2304                           	opt stack 5
  2305                           ; Regs used in _PowerInit: [wreg+status,2+status,0]
  2306                           	line	20
  2307                           	
  2308  0000'                    l30001343:	
  2309                           ;main.c: 20: IRCF0=0x00;
  2310  0000' 1683               	bsf	status, 5	;RP0=1, select bank1
  2311  0001' 1303               	bcf	status, 6	;RP1=0, select bank1
  2312  0002' 120F               	bcf	(1148/8)^080h,(1148)&7
  2313                           	line	21
  2314                           ;main.c: 21: SCS=0x01;
  2315  0003' 140F               	bsf	(1144/8)^080h,(1144)&7
  2316                           	line	22
  2317                           ;main.c: 22: IRCF1=0x01;
  2318  0004' 168F               	bsf	(1149/8)^080h,(1149)&7
  2319                           	line	23
  2320                           ;main.c: 23: IRCF2=0x01;
  2321  0005' 170F               	bsf	(1150/8)^080h,(1150)&7
  2322                           	
  2323  0006'                    l30001344:	
  2324                           	line	25
  2325                           ;main.c: 25: OSCTUNE=0x00;
  2326  0006' 1003               	clrc
  2327  0007' 3000               	movlw	0
  2328  0008' 1803               	btfsc	status,0
  2329  0009' 3001               	movlw	1
  2330  000A' 0090               	movwf	(144)^080h
  2331                           	line	27
  2332                           ;main.c: 27: CM1CON0=0x00;
  2333  000B' 1003               	clrc
  2334  000C' 3000               	movlw	0
  2335  000D' 1803               	btfsc	status,0
  2336  000E' 3001               	movlw	1
  2337  000F' 1283               	bcf	status, 5	;RP0=0, select bank2
  2338  0010' 1703               	bsf	status, 6	;RP1=1, select bank2
  2339  0011' 0099               	movwf	(281)^0100h	;volatile
  2340                           	line	28
  2341                           ;main.c: 28: ANSEL=0x00;
  2342  0012' 1003               	clrc
  2343  0013' 3000               	movlw	0
  2344  0014' 1803               	btfsc	status,0
  2345  0015' 3001               	movlw	1
  2346  0016' 009E               	movwf	(286)^0100h
  2347                           	line	29
  2348                           ;main.c: 29: ANSELH=0x00;
  2349  0017' 1003               	clrc
  2350  0018' 3000               	movlw	0
  2351  0019' 1803               	btfsc	status,0
  2352  001A' 3001               	movlw	1
  2353  001B' 009F               	movwf	(287)^0100h
  2354                           	
  2355  001C'                    l30001345:	
  2356                           	line	31
  2357                           ;main.c: 31: TRISC1=0x00;
  2358  001C' 1683               	bsf	status, 5	;RP0=1, select bank1
  2359  001D' 1303               	bcf	status, 6	;RP1=0, select bank1
  2360  001E' 1087               	bcf	(1081/8)^080h,(1081)&7
  2361                           	
  2362  001F'                    l30001346:	
  2363                           	line	32
  2364                           ;main.c: 32: RC1=0x00;
  2365  001F' 1283               	bcf	status, 5	;RP0=0, select bank0
  2366  0020' 1303               	bcf	status, 6	;RP1=0, select bank0
  2367  0021' 1087               	bcf	(57/8),(57)&7
  2368                           	
  2369  0022'                    l30001347:	
  2370                           	line	34
  2371                           ;main.c: 34: TRISA5=0x01;
  2372  0022' 1683               	bsf	status, 5	;RP0=1, select bank1
  2373  0023' 1303               	bcf	status, 6	;RP1=0, select bank1
  2374  0024' 1685               	bsf	(1069/8)^080h,(1069)&7
  2375                           	
  2376  0025'                    l30001348:	
  2377                           	line	35
  2378                           ;main.c: 35: WPUA=0x24;
  2379  0025' 3024               	movlw	(024h)
  2380  0026' 0095               	movwf	(149)^080h
  2381                           	
  2382  0027'                    l30001349:	
  2383                           	line	37
  2384                           ;main.c: 37: TRISC5=0x00;
  2385  0027' 1287               	bcf	(1085/8)^080h,(1085)&7
  2386                           	
  2387  0028'                    l30001350:	
  2388                           	line	38
  2389                           ;main.c: 38: RC5=0x00;
  2390  0028' 1283               	bcf	status, 5	;RP0=0, select bank0
  2391  0029' 1303               	bcf	status, 6	;RP1=0, select bank0
  2392  002A' 1287               	bcf	(61/8),(61)&7
  2393                           	
  2394  002B'                    l30001351:	
  2395                           	line	39
  2396                           ;main.c: 39: TRISA4=0x01;
  2397  002B' 1683               	bsf	status, 5	;RP0=1, select bank1
  2398  002C' 1303               	bcf	status, 6	;RP1=0, select bank1
  2399  002D' 1605               	bsf	(1068/8)^080h,(1068)&7
  2400                           	
  2401  002E'                    l30001352:	
  2402                           	line	40
  2403                           ;main.c: 40: RABPU=0x00;
  2404  002E' 1381               	bcf	(1039/8)^080h,(1039)&7
  2405                           	
  2406  002F'                    l30001353:	
  2407                           	line	41
  2408                           ;main.c: 41: TRISC0=0x00;
  2409  002F' 1007               	bcf	(1080/8)^080h,(1080)&7
  2410                           	
  2411  0030'                    l30001354:	
  2412                           	line	42
  2413                           ;main.c: 42: TRISC2=0x01;
  2414  0030' 1507               	bsf	(1082/8)^080h,(1082)&7
  2415                           	
  2416  0031'                    l30001355:	
  2417                           	line	43
  2418                           ;main.c: 43: TRISA2=0x01;
  2419  0031' 1505               	bsf	(1066/8)^080h,(1066)&7
  2420                           	
  2421  0032'                    l30001356:	
  2422                           	line	44
  2423                           ;main.c: 44: RC0=0x00;
  2424  0032' 1283               	bcf	status, 5	;RP0=0, select bank0
  2425  0033' 1303               	bcf	status, 6	;RP1=0, select bank0
  2426  0034' 1007               	bcf	(56/8),(56)&7
  2427                           	
  2428  0035'                    l30001357:	
  2429                           	line	46
  2430                           ;main.c: 46: TRISC6=0x00;
  2431  0035' 1683               	bsf	status, 5	;RP0=1, select bank1
  2432  0036' 1303               	bcf	status, 6	;RP1=0, select bank1
  2433  0037' 1307               	bcf	(1086/8)^080h,(1086)&7
  2434                           	
  2435  0038'                    l30001358:	
  2436                           	line	47
  2437                           ;main.c: 47: TRISC7=0x00;
  2438  0038' 1387               	bcf	(1087/8)^080h,(1087)&7
  2439                           	
  2440  0039'                    l30001359:	
  2441                           	line	49
  2442  0039' 1283               	bcf	status, 5	;RP0=0, select bank0
  2443  003A' 1303               	bcf	status, 6	;RP1=0, select bank0
  2444  003B' 1307               	bcf	(62/8),(62)&7
  2445                           	
  2446  003C'                    l30001360:	
  2447  003C' 1387               	bcf	(63/8),(63)&7
  2448                           	
  2449  003D'                    l30001361:	
  2450                           	line	51
  2451                           ;main.c: 51: EECON1=0x00;
  2452  003D' 1003               	clrc
  2453  003E' 3000               	movlw	0
  2454  003F' 1803               	btfsc	status,0
  2455  0040' 3001               	movlw	1
  2456  0041' 1683               	bsf	status, 5	;RP0=1, select bank3
  2457  0042' 1703               	bsf	status, 6	;RP1=1, select bank3
  2458  0043' 008C               	movwf	(396)^0180h	;volatile
  2459                           	line	53
  2460                           ;main.c: 53: INTCON=0x88;
  2461  0044' 3088               	movlw	(088h)
  2462  0045' 1283               	bcf	status, 5	;RP0=0, select bank0
  2463  0046' 1303               	bcf	status, 6	;RP1=0, select bank0
  2464  0047' 008B               	movwf	(11)	;volatile
  2465                           	line	54
  2466                           ;main.c: 54: IOCA=0x24;
  2467  0048' 3024               	movlw	(024h)
  2468  0049' 1683               	bsf	status, 5	;RP0=1, select bank1
  2469  004A' 1303               	bcf	status, 6	;RP1=0, select bank1
  2470  004B' 0096               	movwf	(150)^080h
  2471                           	
  2472  004C'                    l30001362:	
  2473                           	line	55
  2474                           ;main.c: 55: AutoMode=0x01;
  2475  004C' 1283               	bcf	status, 5	;RP0=0, select bank0
  2476  004D' 1303               	bcf	status, 6	;RP1=0, select bank0
  2477  004E' 0180'              	clrf	(_AutoMode)
  2478  004F' 1403               	bsf	status,0
  2479  0050' 0D80'              	rlf	(_AutoMode),f
  2480                           	
  2481  0051'                    l1:	
  2482  0051' 0008               	return
  2483                           	opt stack 0
  2484                           GLOBAL	__end_of_PowerInit
  2485  0052'                    	__end_of_PowerInit:
  2486                           ; =============== function _PowerInit ends ============
  2487                           
  2488                           psect	text249,local,class=CODE,delta=2
  2489                           global __ptext249
  2490  0000'                    __ptext249:
  2491                           	line	56
  2492                           	signat	_PowerInit,88
  2493                           	global	_Configuration
  2494                           
  2495                           ; *************** function _Configuration *****************
  2496                           ; Defined at:
  2497                           ;		line 313 in file "D:\Amit\E-Projects\PIC Projects\CMC\iBUTTON\main.c"
  2498                           ; Parameters:    Size  Location     Type
  2499                           ;		None
  2500                           ; Auto vars:     Size  Location     Type
  2501                           ;  k               2    0        unsigned int 
  2502                           ;  i               1   19[BANK0 ] unsigned char 
  2503                           ;  KeyConfigure    1   18[BANK0 ] unsigned char 
  2504                           ;  key             1   17[BANK0 ] unsigned char 
  2505                           ; Return value:  Size  Location     Type
  2506                           ;		None               void
  2507                           ; Registers used:
  2508                           ;		wreg, fsr0l, fsr0h, fsr1l, fsr1h, status,2, status,0, btemp+0, btemp+1, btemp+2, btem
                                 p+3, pclath, cstack
  2509                           ; Tracked objects:
  2510                           ;		On entry : 0/0
  2511                           ;		On exit  : 0/0
  2512                           ;		Unchanged: 0/0
  2513                           ; Data sizes:     COMMON   BANK0   BANK1
  2514                           ;      Locals:         0       4       0
  2515                           ;      Temp:     1
  2516                           ;      Total:    4
  2517                           ; This function calls:
  2518                           ;		_BuzzerBeep
  2519                           ;		_Wait_With_LED_Blink
  2520                           ;		_ReadiButton
  2521                           ;		_AvailabeKey
  2522                           ;		_EEPROMReadKey
  2523                           ;		_strcmp
  2524                           ;		_ClearKey
  2525                           ;		_CRCCheck
  2526                           ;		_EEPROMWriteKey
  2527                           ;		_ClearAllKeys
  2528                           ;		_DelayMs
  2529                           ;		_ToggleLED
  2530                           ; This function is called by:
  2531                           ;		_LockOperation
  2532                           ; This function uses a non-reentrant model
  2533                           ; 
  2534                           psect	text249
  2535                           	file	"D:\Amit\E-Projects\PIC Projects\CMC\iBUTTON\main.c"
  2536                           	line	313
  2537                           	global	__size_of_Configuration
  2538  00CC                     	__size_of_Configuration	equ	__end_of_Configuration-_Configuration
  2539                           ;main.c: 312: void Configuration(void)
  2540                           ;main.c: 313: {
  2541                           	
  2542  0000'                    _Configuration:	
  2543                           	opt stack 4
  2544                           ; Regs used in _Configuration: [allreg]
  2545                           	line	314
  2546                           	
  2547  0000'                    l30001376:	
  2548                           ;main.c: 314: unsigned char i, key, KeyConfigured = 0;
  2549  0000' 1003               	clrc
  2550  0001' 3000               	movlw	0
  2551  0002' 1803               	btfsc	status,0
  2552  0003' 3001               	movlw	1
  2553  0004' 1283               	bcf	status, 5	;RP0=0, select bank0
  2554  0005' 1303               	bcf	status, 6	;RP1=0, select bank0
  2555  0006' 0092'              	movwf	(Configuration@KeyConfigured)
  2556                           	
  2557  0007'                    l30001377:	
  2558                           	line	317
  2559                           ;main.c: 315: unsigned int k;
  2560                           ;main.c: 317: BuzzerBeep(1,1);
  2561  0007' 018F'              	clrf	(?_BuzzerBeep)
  2562  0008' 1403               	bsf	status,0
  2563  0009' 0D8F'              	rlf	(?_BuzzerBeep),f
  2564  000A' 3001               	movlw	(01h)
  2565  000B' 2000'              	fcall	_BuzzerBeep
  2566                           	
  2567  000C'                    l30001378:	
  2568                           	line	319
  2569                           ;main.c: 319: Wait_With_LED_Blink();
  2570  000C' 2000'              	fcall	_Wait_With_LED_Blink
  2571                           	line	321
  2572                           ;main.c: 321: TimeCounter = 0;
  2573  000D' 1003               	clrc
  2574  000E' 3000               	movlw	0
  2575  000F' 1803               	btfsc	status,0
  2576  0010' 3001               	movlw	1
  2577  0011' 0084'              	movwf	(_TimeCounter)
  2578  0012' 28BD'              	goto	l30001412
  2579                           	
  2580  0013'                    l30001379:	
  2581                           	line	324
  2582                           ;main.c: 323: {
  2583                           ;main.c: 324: if(ReadiButton())
  2584  0013' 2000'              	fcall	_ReadiButton
  2585  0014' 3A00               	xorlw	0
  2586  0015' 1903               	skipnz
  2587  0016' 2818'              	goto	u1621
  2588  0017' 2819'              	goto	u1620
  2589  0018'                    u1621:
  2590  0018' 28AF'              	goto	l30001410
  2591  0019'                    u1620:
  2592                           	
  2593  0019'                    l30001380:	
  2594                           	line	326
  2595                           ;main.c: 325: {
  2596                           ;main.c: 326: MatchKey = AvailabeKey();
  2597  0019' 2000'              	fcall	_AvailabeKey
  2598  001A' 0083'              	movwf	(_MatchKey)
  2599                           	
  2600  001B'                    l30001381:	
  2601                           	line	327
  2602                           ;main.c: 327: if(MatchKey != 2)
  2603  001B' 0803'              	movf	(_MatchKey),w
  2604  001C' 3A02               	xorlw	02h
  2605  001D' 1903               	skipnz
  2606  001E' 2820'              	goto	u1631
  2607  001F' 2821'              	goto	u1630
  2608  0020'                    u1631:
  2609  0020' 2896'              	goto	l30001406
  2610  0021'                    u1630:
  2611                           	
  2612  0021'                    l30001382:	
  2613                           	line	329
  2614                           ;main.c: 328: {
  2615                           ;main.c: 329: KeyConfigured=0x01;
  2616  0021' 1283               	bcf	status, 5	;RP0=0, select bank0
  2617  0022' 1303               	bcf	status, 6	;RP1=0, select bank0
  2618  0023' 0192'              	clrf	(Configuration@KeyConfigured)
  2619  0024' 1403               	bsf	status,0
  2620  0025' 0D92'              	rlf	(Configuration@KeyConfigured),f
  2621                           	line	330
  2622                           ;main.c: 330: for(i=1;i<23;i++)
  2623  0026' 0193'              	clrf	(Configuration@i)
  2624  0027' 1403               	bsf	status,0
  2625  0028' 0D93'              	rlf	(Configuration@i),f
  2626                           	
  2627  0029'                    l30001385:	
  2628                           	line	332
  2629                           ;main.c: 331: {
  2630                           ;main.c: 332: EEPROMReadKey(i);
  2631  0029' 0813'              	movf	(Configuration@i),w
  2632  002A' 2000'              	fcall	_EEPROMReadKey
  2633                           	line	333
  2634                           ;main.c: 333: key = strcmp(iButtonKey,EEPROMKey);
  2635  002B' 3000'              	movlw	((_EEPROMKey))&0ffh
  2636  002C' 1283               	bcf	status, 5	;RP0=0, select bank0
  2637  002D' 1303               	bcf	status, 6	;RP1=0, select bank0
  2638  002E' 0080'              	movwf	(?_strcmp)
  2639  002F' 3000'              	movlw	((_iButtonKey))&0ffh
  2640  0030' 2000'              	fcall	_strcmp
  2641  0031' 1283               	bcf	status, 5	;RP0=0, select bank0
  2642  0032' 1303               	bcf	status, 6	;RP1=0, select bank0
  2643  0033' 0091'              	movwf	(Configuration@key)
  2644                           	
  2645  0034'                    l30001386:	
  2646                           	line	334
  2647                           ;main.c: 334: if(key)
  2648  0034' 0811'              	movf	(Configuration@key),w
  2649  0035' 1D03               	skipz
  2650  0036' 2838'              	goto	u1640
  2651  0037' 284A'              	goto	l30001391
  2652  0038'                    u1640:
  2653                           	
  2654  0038'                    l30001387:	
  2655                           	line	336
  2656                           ;main.c: 335: {
  2657                           ;main.c: 336: ClearKey(i);
  2658  0038' 0813'              	movf	(Configuration@i),w
  2659  0039' 2000'              	fcall	_ClearKey
  2660                           	
  2661  003A'                    l30001388:	
  2662                           	line	337
  2663                           ;main.c: 337: BuzzerBeep(2,0);
  2664  003A' 1003               	clrc
  2665  003B' 3000               	movlw	0
  2666  003C' 1803               	btfsc	status,0
  2667  003D' 3001               	movlw	1
  2668  003E' 1283               	bcf	status, 5	;RP0=0, select bank0
  2669  003F' 1303               	bcf	status, 6	;RP1=0, select bank0
  2670  0040' 008F'              	movwf	(?_BuzzerBeep)
  2671  0041' 3002               	movlw	(02h)
  2672  0042' 2000'              	fcall	_BuzzerBeep
  2673                           	
  2674  0043'                    l30001389:	
  2675                           	line	338
  2676                           ;main.c: 338: TimeCounter=0x00;
  2677  0043' 1003               	clrc
  2678  0044' 3000               	movlw	0
  2679  0045' 1803               	btfsc	status,0
  2680  0046' 3001               	movlw	1
  2681  0047' 0084'              	movwf	(_TimeCounter)
  2682                           	
  2683  0048'                    l30001390:	
  2684                           	line	340
  2685                           ;main.c: 340: Wait_With_LED_Blink();
  2686  0048' 2000'              	fcall	_Wait_With_LED_Blink
  2687  0049' 2854'              	goto	l30001393
  2688                           	
  2689  004A'                    l30001391:	
  2690                           	line	330
  2691  004A' 3001               	movlw	(01h)
  2692  004B' 0090'              	movwf	(??_Configuration+0+0)
  2693  004C' 0810'              	movf	(??_Configuration+0+0),w
  2694  004D' 0793'              	addwf	(Configuration@i),f
  2695                           	
  2696  004E'                    l30001392:	
  2697  004E' 3017               	movlw	(017h)
  2698  004F' 0213'              	subwf	(Configuration@i),w
  2699  0050' 1C03               	skipc
  2700  0051' 2853'              	goto	u1651
  2701  0052' 2854'              	goto	u1650
  2702  0053'                    u1651:
  2703  0053' 2829'              	goto	l30001385
  2704  0054'                    u1650:
  2705                           	
  2706  0054'                    l30001393:	
  2707                           	line	344
  2708                           ;main.c: 342: }
  2709                           ;main.c: 343: }
  2710                           ;main.c: 344: if(i==23)
  2711  0054' 1283               	bcf	status, 5	;RP0=0, select bank0
  2712  0055' 1303               	bcf	status, 6	;RP1=0, select bank0
  2713  0056' 0813'              	movf	(Configuration@i),w
  2714  0057' 3A17               	xorlw	017h
  2715  0058' 1D03               	skipz
  2716  0059' 285B'              	goto	u1661
  2717  005A' 285C'              	goto	u1660
  2718  005B'                    u1661:
  2719  005B' 28AF'              	goto	l30001410
  2720  005C'                    u1660:
  2721                           	
  2722  005C'                    l30001394:	
  2723                           	line	346
  2724                           ;main.c: 345: {
  2725                           ;main.c: 346: for(i=1;i<23;i++)
  2726  005C' 0193'              	clrf	(Configuration@i)
  2727  005D' 1403               	bsf	status,0
  2728  005E' 0D93'              	rlf	(Configuration@i),f
  2729                           	
  2730  005F'                    l30001397:	
  2731                           	line	348
  2732                           ;main.c: 347: {
  2733                           ;main.c: 348: EEPROMReadKey(i);
  2734  005F' 0813'              	movf	(Configuration@i),w
  2735  0060' 2000'              	fcall	_EEPROMReadKey
  2736                           	line	349
  2737                           ;main.c: 349: if(CRCCheck(EEPROMKey) == 0)
  2738  0061' 3000'              	movlw	((_EEPROMKey))&0ffh
  2739  0062' 2000'              	fcall	_CRCCheck
  2740  0063' 3800               	iorlw	0
  2741  0064' 1D03               	skipz
  2742  0065' 2867'              	goto	u1671
  2743  0066' 2868'              	goto	u1670
  2744  0067'                    u1671:
  2745  0067' 287C'              	goto	l30001402
  2746  0068'                    u1670:
  2747                           	
  2748  0068'                    l30001398:	
  2749                           	line	351
  2750                           ;main.c: 350: {
  2751                           ;main.c: 351: EEPROMWriteKey(i);
  2752  0068' 1283               	bcf	status, 5	;RP0=0, select bank0
  2753  0069' 1303               	bcf	status, 6	;RP1=0, select bank0
  2754  006A' 0813'              	movf	(Configuration@i),w
  2755  006B' 2000'              	fcall	_EEPROMWriteKey
  2756                           	
  2757  006C'                    l30001399:	
  2758                           	line	352
  2759                           ;main.c: 352: BuzzerBeep(1,0);
  2760  006C' 1003               	clrc
  2761  006D' 3000               	movlw	0
  2762  006E' 1803               	btfsc	status,0
  2763  006F' 3001               	movlw	1
  2764  0070' 1283               	bcf	status, 5	;RP0=0, select bank0
  2765  0071' 1303               	bcf	status, 6	;RP1=0, select bank0
  2766  0072' 008F'              	movwf	(?_BuzzerBeep)
  2767  0073' 3001               	movlw	(01h)
  2768  0074' 2000'              	fcall	_BuzzerBeep
  2769                           	
  2770  0075'                    l30001400:	
  2771                           	line	353
  2772                           ;main.c: 353: TimeCounter=0x00;
  2773  0075' 1003               	clrc
  2774  0076' 3000               	movlw	0
  2775  0077' 1803               	btfsc	status,0
  2776  0078' 3001               	movlw	1
  2777  0079' 0084'              	movwf	(_TimeCounter)
  2778                           	
  2779  007A'                    l30001401:	
  2780                           	line	355
  2781                           ;main.c: 355: Wait_With_LED_Blink();
  2782  007A' 2000'              	fcall	_Wait_With_LED_Blink
  2783  007B' 2888'              	goto	l30001404
  2784                           	
  2785  007C'                    l30001402:	
  2786                           	line	346
  2787  007C' 3001               	movlw	(01h)
  2788  007D' 1283               	bcf	status, 5	;RP0=0, select bank0
  2789  007E' 1303               	bcf	status, 6	;RP1=0, select bank0
  2790  007F' 0090'              	movwf	(??_Configuration+0+0)
  2791  0080' 0810'              	movf	(??_Configuration+0+0),w
  2792  0081' 0793'              	addwf	(Configuration@i),f
  2793                           	
  2794  0082'                    l30001403:	
  2795  0082' 3017               	movlw	(017h)
  2796  0083' 0213'              	subwf	(Configuration@i),w
  2797  0084' 1C03               	skipc
  2798  0085' 2887'              	goto	u1681
  2799  0086' 2888'              	goto	u1680
  2800  0087'                    u1681:
  2801  0087' 285F'              	goto	l30001397
  2802  0088'                    u1680:
  2803                           	
  2804  0088'                    l30001404:	
  2805                           	line	360
  2806                           ;main.c: 357: }
  2807                           ;main.c: 358: }
  2808                           ;main.c: 360: if(i==23)
  2809  0088' 1283               	bcf	status, 5	;RP0=0, select bank0
  2810  0089' 1303               	bcf	status, 6	;RP1=0, select bank0
  2811  008A' 0813'              	movf	(Configuration@i),w
  2812  008B' 3A17               	xorlw	017h
  2813  008C' 1D03               	skipz
  2814  008D' 288F'              	goto	u1691
  2815  008E' 2890'              	goto	u1690
  2816  008F'                    u1691:
  2817  008F' 28AF'              	goto	l137
  2818  0090'                    u1690:
  2819                           	
  2820  0090'                    l30001405:	
  2821                           	line	361
  2822                           ;main.c: 361: BuzzerBeep(3,1);
  2823  0090' 018F'              	clrf	(?_BuzzerBeep)
  2824  0091' 1403               	bsf	status,0
  2825  0092' 0D8F'              	rlf	(?_BuzzerBeep),f
  2826  0093' 3003               	movlw	(03h)
  2827  0094' 2000'              	fcall	_BuzzerBeep
  2828  0095' 28AF'              	goto	l30001410
  2829                           	
  2830  0096'                    l30001406:	
  2831                           	line	367
  2832                           ;main.c: 365: else
  2833                           ;main.c: 366: {
  2834                           ;main.c: 367: if(KeyConfigured==0)
  2835  0096' 1283               	bcf	status, 5	;RP0=0, select bank0
  2836  0097' 1303               	bcf	status, 6	;RP1=0, select bank0
  2837  0098' 0892'              	movf	(Configuration@KeyConfigured),f
  2838  0099' 1D03               	skipz
  2839  009A' 289C'              	goto	u1701
  2840  009B' 289D'              	goto	u1700
  2841  009C'                    u1701:
  2842  009C' 28A7'              	goto	l30001409
  2843  009D'                    u1700:
  2844                           	
  2845  009D'                    l30001407:	
  2846                           	line	369
  2847                           ;main.c: 368: {
  2848                           ;main.c: 369: ClearAllKeys(0);
  2849  009D' 3000               	movlw	(0)
  2850  009E' 2000'              	fcall	_ClearAllKeys
  2851                           	
  2852  009F'                    l30001408:	
  2853                           	line	370
  2854                           ;main.c: 370: BuzzerBeep(3,1);
  2855  009F' 1283               	bcf	status, 5	;RP0=0, select bank0
  2856  00A0' 1303               	bcf	status, 6	;RP1=0, select bank0
  2857  00A1' 018F'              	clrf	(?_BuzzerBeep)
  2858  00A2' 1403               	bsf	status,0
  2859  00A3' 0D8F'              	rlf	(?_BuzzerBeep),f
  2860  00A4' 3003               	movlw	(03h)
  2861  00A5' 2000'              	fcall	_BuzzerBeep
  2862  00A6' 28C3'              	goto	l30001413
  2863                           	
  2864  00A7'                    l30001409:	
  2865                           	line	373
  2866                           ;main.c: 372: else
  2867                           ;main.c: 373: BuzzerBeep(1,0);
  2868  00A7' 1003               	clrc
  2869  00A8' 3000               	movlw	0
  2870  00A9' 1803               	btfsc	status,0
  2871  00AA' 3001               	movlw	1
  2872  00AB' 008F'              	movwf	(?_BuzzerBeep)
  2873  00AC' 3001               	movlw	(01h)
  2874  00AD' 2000'              	fcall	_BuzzerBeep
  2875  00AE' 28C3'              	goto	l30001413
  2876                           	
  2877  00AF'                    l137:	
  2878                           	
  2879  00AF'                    l30001410:	
  2880                           	line	377
  2881                           ;main.c: 375: }
  2882                           ;main.c: 376: }
  2883                           ;main.c: 377: DelayMs(170+30*3);
  2884  00AF' 3004               	movlw	low(0104h)
  2885  00B0' 1283               	bcf	status, 5	;RP0=0, select bank0
  2886  00B1' 1303               	bcf	status, 6	;RP1=0, select bank0
  2887  00B2' 0084'              	movwf	(?_DelayMs)
  2888  00B3' 3001               	movlw	high(0104h)
  2889  00B4' 0085'              	movwf	((?_DelayMs))+1
  2890  00B5' 2000'              	fcall	_DelayMs
  2891                           	line	378
  2892                           ;main.c: 378: ToggleLED();
  2893  00B6' 2000'              	fcall	_ToggleLED
  2894                           	
  2895  00B7'                    l30001411:	
  2896                           	line	379
  2897                           ;main.c: 379: TimeCounter++;
  2898  00B7' 3001               	movlw	(01h)
  2899  00B8' 1283               	bcf	status, 5	;RP0=0, select bank0
  2900  00B9' 1303               	bcf	status, 6	;RP1=0, select bank0
  2901  00BA' 0090'              	movwf	(??_Configuration+0+0)
  2902  00BB' 0810'              	movf	(??_Configuration+0+0),w
  2903  00BC' 0784'              	addwf	(_TimeCounter),f
  2904                           	
  2905  00BD'                    l30001412:	
  2906                           	line	322
  2907  00BD' 3024               	movlw	(024h)
  2908  00BE' 0204'              	subwf	(_TimeCounter),w
  2909  00BF' 1C03               	skipc
  2910  00C0' 28C2'              	goto	u1711
  2911  00C1' 28C3'              	goto	u1710
  2912  00C2'                    u1711:
  2913  00C2' 2813'              	goto	l30001379
  2914  00C3'                    u1710:
  2915                           	
  2916  00C3'                    l30001413:	
  2917                           	line	381
  2918                           ;main.c: 380: }
  2919                           ;main.c: 381: TimeCounter = 5;
  2920  00C3' 3005               	movlw	(05h)
  2921  00C4' 0084'              	movwf	(_TimeCounter)
  2922                           	
  2923  00C5'                    l30001414:	
  2924                           	line	382
  2925                           ;main.c: 382: TimeCounter++;
  2926  00C5' 3001               	movlw	(01h)
  2927  00C6' 1283               	bcf	status, 5	;RP0=0, select bank0
  2928  00C7' 1303               	bcf	status, 6	;RP1=0, select bank0
  2929  00C8' 0090'              	movwf	(??_Configuration+0+0)
  2930  00C9' 0810'              	movf	(??_Configuration+0+0),w
  2931  00CA' 0784'              	addwf	(_TimeCounter),f
  2932                           	
  2933  00CB'                    l121:	
  2934  00CB' 0008               	return
  2935                           	opt stack 0
  2936                           GLOBAL	__end_of_Configuration
  2937  00CC'                    	__end_of_Configuration:
  2938                           ; =============== function _Configuration ends ============
  2939                           
  2940                           psect	text250,local,class=CODE,delta=2
  2941                           global __ptext250
  2942  0000'                    __ptext250:
  2943                           	line	383
  2944                           	signat	_Configuration,88
  2945                           	global	_DoorOpen
  2946                           
  2947                           ; *************** function _DoorOpen *****************
  2948                           ; Defined at:
  2949                           ;		line 115 in file "D:\Amit\E-Projects\PIC Projects\CMC\iBUTTON\main.c"
  2950                           ; Parameters:    Size  Location     Type
  2951                           ;		None
  2952                           ; Auto vars:     Size  Location     Type
  2953                           ;  BattStatus      1    1[COMMON] unsigned char 
  2954                           ; Return value:  Size  Location     Type
  2955                           ;		None               void
  2956                           ; Registers used:
  2957                           ;		wreg, status,2, status,0, pclath, cstack
  2958                           ; Tracked objects:
  2959                           ;		On entry : 0/0
  2960                           ;		On exit  : 0/0
  2961                           ;		Unchanged: 0/0
  2962                           ; Data sizes:     COMMON   BANK0   BANK1
  2963                           ;      Locals:         2       0       0
  2964                           ;      Temp:     1
  2965                           ;      Total:    2
  2966                           ; This function calls:
  2967                           ;		_DelayMs
  2968                           ; This function is called by:
  2969                           ;		_LockOperation
  2970                           ; This function uses a non-reentrant model
  2971                           ; 
  2972                           psect	text250
  2973                           	file	"D:\Amit\E-Projects\PIC Projects\CMC\iBUTTON\main.c"
  2974                           	line	115
  2975                           	global	__size_of_DoorOpen
  2976  0069                     	__size_of_DoorOpen	equ	__end_of_DoorOpen-_DoorOpen
  2977                           ;main.c: 114: void DoorOpen(void)
  2978                           ;main.c: 115: {
  2979                           	
  2980  0000'                    _DoorOpen:	
  2981                           	opt stack 4
  2982                           ; Regs used in _DoorOpen: [wreg+status,2+status,0+pclath+cstack]
  2983                           	line	117
  2984                           	
  2985  0000'                    l30001633:	
  2986                           ;main.c: 116: unsigned char BattStatus;
  2987                           ;main.c: 117: BattStatus=0x00;
  2988  0000' 1003               	clrc
  2989  0001' 3000               	movlw	0
  2990  0002' 1803               	btfsc	status,0
  2991  0003' 3001               	movlw	1
  2992  0004' 0081'              	movwf	(DoorOpen@BattStatus)
  2993                           	
  2994  0005'                    l30001634:	
  2995                           	line	118
  2996                           ;main.c: 118: if(RA5)
  2997  0005' 1283               	bcf	status, 5	;RP0=0, select bank0
  2998  0006' 1303               	bcf	status, 6	;RP1=0, select bank0
  2999  0007' 1E85               	btfss	(45/8),(45)&7
  3000  0008' 280A'              	goto	u2221
  3001  0009' 280B'              	goto	u2220
  3002  000A'                    u2221:
  3003  000A' 280F'              	goto	l30001636
  3004  000B'                    u2220:
  3005                           	
  3006  000B'                    l30001635:	
  3007                           	line	119
  3008                           ;main.c: 119: BattStatus++;
  3009  000B' 3001               	movlw	(01h)
  3010  000C' 0080'              	movwf	(??_DoorOpen+0+0)
  3011  000D' 0800'              	movf	(??_DoorOpen+0+0),w
  3012  000E' 0781'              	addwf	(DoorOpen@BattStatus),f
  3013                           	
  3014  000F'                    l30001636:	
  3015                           	line	120
  3016                           ;main.c: 120: DelayMs(10);
  3017  000F' 300A               	movlw	low(0Ah)
  3018  0010' 0084'              	movwf	(?_DelayMs)
  3019  0011' 3000               	movlw	high(0Ah)
  3020  0012' 0085'              	movwf	((?_DelayMs))+1
  3021  0013' 2000'              	fcall	_DelayMs
  3022                           	
  3023  0014'                    l30001637:	
  3024                           	line	121
  3025                           ;main.c: 121: if(RA5)
  3026  0014' 1283               	bcf	status, 5	;RP0=0, select bank0
  3027  0015' 1303               	bcf	status, 6	;RP1=0, select bank0
  3028  0016' 1E85               	btfss	(45/8),(45)&7
  3029  0017' 2819'              	goto	u2231
  3030  0018' 281A'              	goto	u2230
  3031  0019'                    u2231:
  3032  0019' 281E'              	goto	l30001639
  3033  001A'                    u2230:
  3034                           	
  3035  001A'                    l30001638:	
  3036                           	line	122
  3037                           ;main.c: 122: BattStatus++;
  3038  001A' 3001               	movlw	(01h)
  3039  001B' 0080'              	movwf	(??_DoorOpen+0+0)
  3040  001C' 0800'              	movf	(??_DoorOpen+0+0),w
  3041  001D' 0781'              	addwf	(DoorOpen@BattStatus),f
  3042                           	
  3043  001E'                    l30001639:	
  3044                           	line	123
  3045                           ;main.c: 123: if(DoorState != 1)
  3046  001E' 0800'              	movf	(_DoorState),w
  3047  001F' 3A01               	xorlw	01h
  3048  0020' 1903               	skipnz
  3049  0021' 2823'              	goto	u2241
  3050  0022' 2824'              	goto	u2240
  3051  0023'                    u2241:
  3052  0023' 2834'              	goto	l30001643
  3053  0024'                    u2240:
  3054                           	
  3055  0024'                    l28:	
  3056                           	line	125
  3057  0024' 1707               	bsf	(62/8),(62)&7
  3058  0025' 1787               	bsf	(63/8),(63)&7
  3059                           	
  3060  0026'                    l30001640:	
  3061                           	line	127
  3062                           ;main.c: 127: DelayMs(10);
  3063  0026' 300A               	movlw	low(0Ah)
  3064  0027' 0084'              	movwf	(?_DelayMs)
  3065  0028' 3000               	movlw	high(0Ah)
  3066  0029' 0085'              	movwf	((?_DelayMs))+1
  3067  002A' 2000'              	fcall	_DelayMs
  3068                           	
  3069  002B'                    l30001641:	
  3070                           	line	128
  3071  002B' 1283               	bcf	status, 5	;RP0=0, select bank0
  3072  002C' 1303               	bcf	status, 6	;RP1=0, select bank0
  3073  002D' 1707               	bsf	(62/8),(62)&7
  3074                           	
  3075  002E'                    l30001642:	
  3076  002E' 1387               	bcf	(63/8),(63)&7
  3077                           	
  3078  002F'                    l30:	
  3079                           	line	130
  3080                           ;main.c: 130: DelayMs(195);
  3081  002F' 30C3               	movlw	low(0C3h)
  3082  0030' 0084'              	movwf	(?_DelayMs)
  3083  0031' 3000               	movlw	high(0C3h)
  3084  0032' 0085'              	movwf	((?_DelayMs))+1
  3085  0033' 2000'              	fcall	_DelayMs
  3086                           	
  3087  0034'                    l30001643:	
  3088                           	line	132
  3089                           ;main.c: 131: }
  3090                           ;main.c: 132: if(!RA5)
  3091  0034' 1283               	bcf	status, 5	;RP0=0, select bank0
  3092  0035' 1303               	bcf	status, 6	;RP1=0, select bank0
  3093  0036' 1A85               	btfsc	(45/8),(45)&7
  3094  0037' 2839'              	goto	u2251
  3095  0038' 283A'              	goto	u2250
  3096  0039'                    u2251:
  3097  0039' 283E'              	goto	l30001645
  3098  003A'                    u2250:
  3099                           	
  3100  003A'                    l30001644:	
  3101                           	line	133
  3102                           ;main.c: 133: BattStatus++;
  3103  003A' 3001               	movlw	(01h)
  3104  003B' 0080'              	movwf	(??_DoorOpen+0+0)
  3105  003C' 0800'              	movf	(??_DoorOpen+0+0),w
  3106  003D' 0781'              	addwf	(DoorOpen@BattStatus),f
  3107                           	
  3108  003E'                    l30001645:	
  3109                           	line	134
  3110                           ;main.c: 134: DelayMs(10);
  3111  003E' 300A               	movlw	low(0Ah)
  3112  003F' 0084'              	movwf	(?_DelayMs)
  3113  0040' 3000               	movlw	high(0Ah)
  3114  0041' 0085'              	movwf	((?_DelayMs))+1
  3115  0042' 2000'              	fcall	_DelayMs
  3116                           	
  3117  0043'                    l30001646:	
  3118                           	line	135
  3119                           ;main.c: 135: if(!RA5)
  3120  0043' 1283               	bcf	status, 5	;RP0=0, select bank0
  3121  0044' 1303               	bcf	status, 6	;RP1=0, select bank0
  3122  0045' 1A85               	btfsc	(45/8),(45)&7
  3123  0046' 2848'              	goto	u2261
  3124  0047' 2849'              	goto	u2260
  3125  0048'                    u2261:
  3126  0048' 284D'              	goto	l30001648
  3127  0049'                    u2260:
  3128                           	
  3129  0049'                    l30001647:	
  3130                           	line	136
  3131                           ;main.c: 136: BattStatus++;
  3132  0049' 3001               	movlw	(01h)
  3133  004A' 0080'              	movwf	(??_DoorOpen+0+0)
  3134  004B' 0800'              	movf	(??_DoorOpen+0+0),w
  3135  004C' 0781'              	addwf	(DoorOpen@BattStatus),f
  3136                           	
  3137  004D'                    l30001648:	
  3138                           	line	137
  3139                           ;main.c: 137: DelayMs(195);
  3140  004D' 30C3               	movlw	low(0C3h)
  3141  004E' 0084'              	movwf	(?_DelayMs)
  3142  004F' 3000               	movlw	high(0C3h)
  3143  0050' 0085'              	movwf	((?_DelayMs))+1
  3144  0051' 2000'              	fcall	_DelayMs
  3145                           	
  3146  0052'                    l30001649:	
  3147                           	line	138
  3148  0052' 1283               	bcf	status, 5	;RP0=0, select bank0
  3149  0053' 1303               	bcf	status, 6	;RP1=0, select bank0
  3150  0054' 1307               	bcf	(62/8),(62)&7
  3151                           	
  3152  0055'                    l30001650:	
  3153  0055' 1387               	bcf	(63/8),(63)&7
  3154                           	
  3155  0056'                    l30001651:	
  3156                           	line	140
  3157                           ;main.c: 140: DoorState=1;
  3158  0056' 0180'              	clrf	(_DoorState)
  3159  0057' 1403               	bsf	status,0
  3160  0058' 0D80'              	rlf	(_DoorState),f
  3161                           	
  3162  0059'                    l30001652:	
  3163                           	line	142
  3164                           ;main.c: 142: if(BattStatus == 4)
  3165  0059' 0801'              	movf	(DoorOpen@BattStatus),w
  3166  005A' 3A04               	xorlw	04h
  3167  005B' 1D03               	skipz
  3168  005C' 285E'              	goto	u2271
  3169  005D' 285F'              	goto	u2270
  3170  005E'                    u2271:
  3171  005E' 2863'              	goto	l30001654
  3172  005F'                    u2270:
  3173                           	
  3174  005F'                    l30001653:	
  3175                           	line	143
  3176                           ;main.c: 143: LowBatt=0x01;
  3177  005F' 0182'              	clrf	(_LowBatt)
  3178  0060' 1403               	bsf	status,0
  3179  0061' 0D82'              	rlf	(_LowBatt),f
  3180  0062' 2868'              	goto	l22
  3181                           	
  3182  0063'                    l30001654:	
  3183                           	line	145
  3184                           ;main.c: 144: else
  3185                           ;main.c: 145: LowBatt=0x00;
  3186  0063' 1003               	clrc
  3187  0064' 3000               	movlw	0
  3188  0065' 1803               	btfsc	status,0
  3189  0066' 3001               	movlw	1
  3190  0067' 0082'              	movwf	(_LowBatt)
  3191                           	
  3192  0068'                    l22:	
  3193  0068' 0008               	return
  3194                           	opt stack 0
  3195                           GLOBAL	__end_of_DoorOpen
  3196  0069'                    	__end_of_DoorOpen:
  3197                           ; =============== function _DoorOpen ends ============
  3198                           
  3199                           psect	text251,local,class=CODE,delta=2
  3200                           global __ptext251
  3201  0000'                    __ptext251:
  3202                           	line	146
  3203                           	signat	_DoorOpen,88
  3204                           	global	_GoToSleep
  3205                           
  3206                           ; *************** function _GoToSleep *****************
  3207                           ; Defined at:
  3208                           ;		line 68 in file "D:\Amit\E-Projects\PIC Projects\CMC\iBUTTON\main.c"
  3209                           ; Parameters:    Size  Location     Type
  3210                           ;		None
  3211                           ; Auto vars:     Size  Location     Type
  3212                           ;		None
  3213                           ; Return value:  Size  Location     Type
  3214                           ;		None               void
  3215                           ; Registers used:
  3216                           ;		wreg, status,2, status,0, pclath, cstack
  3217                           ; Tracked objects:
  3218                           ;		On entry : 0/0
  3219                           ;		On exit  : 0/0
  3220                           ;		Unchanged: 0/0
  3221                           ; Data sizes:     COMMON   BANK0   BANK1
  3222                           ;      Locals:         0       0       0
  3223                           ;      Temp:     0
  3224                           ;      Total:    0
  3225                           ; This function calls:
  3226                           ;		_DelayMs
  3227                           ; This function is called by:
  3228                           ;		_ConfigureMasterKey
  3229                           ;		_main
  3230                           ; This function uses a non-reentrant model
  3231                           ; 
  3232                           psect	text251
  3233                           	file	"D:\Amit\E-Projects\PIC Projects\CMC\iBUTTON\main.c"
  3234                           	line	68
  3235                           	global	__size_of_GoToSleep
  3236  000E                     	__size_of_GoToSleep	equ	__end_of_GoToSleep-_GoToSleep
  3237                           ;main.c: 67: void GoToSleep(void)
  3238                           ;main.c: 68: {
  3239                           	
  3240  0000'                    _GoToSleep:	
  3241                           	opt stack 4
  3242                           ; Regs used in _GoToSleep: [wreg+status,2+status,0+pclath+cstack]
  3243                           	line	70
  3244                           	
  3245  0000'                    l30001631:	
  3246                           # 70 "D:\Amit\E-Projects\PIC Projects\CMC\iBUTTON\main.c"
  3247  0000' 1683                BSF 0x3, 0x5 ;#
  3248                           	line	71
  3249                           # 71 "D:\Amit\E-Projects\PIC Projects\CMC\iBUTTON\main.c"
  3250  0001' 1303                BCF 0x3, 0x6 ;#
  3251                           	line	72
  3252                           # 72 "D:\Amit\E-Projects\PIC Projects\CMC\iBUTTON\main.c"
  3253  0002' 1505                BSF 0x5, 0x2 ;#
  3254                           	line	74
  3255                           # 74 "D:\Amit\E-Projects\PIC Projects\CMC\iBUTTON\main.c"
  3256  0003' 3024                MOVLW 0x24 ;#
  3257                           	line	75
  3258                           # 75 "D:\Amit\E-Projects\PIC Projects\CMC\iBUTTON\main.c"
  3259  0004' 0096                MOVWF 0x16 ;#
  3260                           	line	76
  3261                           # 76 "D:\Amit\E-Projects\PIC Projects\CMC\iBUTTON\main.c"
  3262  0005' 0063                SLEEP ;#
  3263                           	line	78
  3264                           # 78 "D:\Amit\E-Projects\PIC Projects\CMC\iBUTTON\main.c"
  3265                           # 77 ;#
  3266                           psect	text251
  3267                           	
  3268  0006'                    l30001632:	
  3269                           	line	81
  3270                           ;main.c: 81: DelayMs(80);
  3271  0006' 3050               	movlw	low(050h)
  3272  0007' 1283               	bcf	status, 5	;RP0=0, select bank0
  3273  0008' 1303               	bcf	status, 6	;RP1=0, select bank0
  3274  0009' 0084'              	movwf	(?_DelayMs)
  3275  000A' 3000               	movlw	high(050h)
  3276  000B' 0085'              	movwf	((?_DelayMs))+1
  3277  000C' 2000'              	fcall	_DelayMs
  3278                           	
  3279  000D'                    l13:	
  3280  000D' 0008               	return
  3281                           	opt stack 0
  3282                           GLOBAL	__end_of_GoToSleep
  3283  000E'                    	__end_of_GoToSleep:
  3284                           ; =============== function _GoToSleep ends ============
  3285                           
  3286                           psect	text252,local,class=CODE,delta=2
  3287                           global __ptext252
  3288  0000'                    __ptext252:
  3289                           	line	82
  3290                           	signat	_GoToSleep,88
  3291                           	global	_ToggleBuzzLED
  3292                           
  3293                           ; *************** function _ToggleBuzzLED *****************
  3294                           ; Defined at:
  3295                           ;		line 101 in file "D:\Amit\E-Projects\PIC Projects\CMC\iBUTTON\main.c"
  3296                           ; Parameters:    Size  Location     Type
  3297                           ;		None
  3298                           ; Auto vars:     Size  Location     Type
  3299                           ;		None
  3300                           ; Return value:  Size  Location     Type
  3301                           ;		None               void
  3302                           ; Registers used:
  3303                           ;		None
  3304                           ; Tracked objects:
  3305                           ;		On entry : 0/0
  3306                           ;		On exit  : 0/0
  3307                           ;		Unchanged: 0/0
  3308                           ; Data sizes:     COMMON   BANK0   BANK1
  3309                           ;      Locals:         0       0       0
  3310                           ;      Temp:     0
  3311                           ;      Total:    0
  3312                           ; This function calls:
  3313                           ;		Nothing
  3314                           ; This function is called by:
  3315                           ;		_LockOperation
  3316                           ; This function uses a non-reentrant model
  3317                           ; 
  3318                           psect	text252
  3319                           	file	"D:\Amit\E-Projects\PIC Projects\CMC\iBUTTON\main.c"
  3320                           	line	101
  3321                           	global	__size_of_ToggleBuzzLED
  3322  000C                     	__size_of_ToggleBuzzLED	equ	__end_of_ToggleBuzzLED-_ToggleBuzzLED
  3323                           ;main.c: 100: void ToggleBuzzLED(void)
  3324                           ;main.c: 101: {
  3325                           	
  3326  0000'                    _ToggleBuzzLED:	
  3327                           	opt stack 4
  3328                           ; Regs used in _ToggleBuzzLED: []
  3329                           	line	102
  3330                           	
  3331  0000'                    l30001341:	
  3332                           ;main.c: 102: if(RC0)
  3333  0000' 1283               	bcf	status, 5	;RP0=0, select bank0
  3334  0001' 1303               	bcf	status, 6	;RP1=0, select bank0
  3335  0002' 1C07               	btfss	(56/8),(56)&7
  3336  0003' 2805'              	goto	u1581
  3337  0004' 2806'              	goto	u1580
  3338  0005'                    u1581:
  3339  0005' 2809'              	goto	l20
  3340  0006'                    u1580:
  3341                           	
  3342  0006'                    l30001342:	
  3343                           	line	104
  3344                           ;main.c: 103: {
  3345                           ;main.c: 104: RC1=0x00;
  3346  0006' 1087               	bcf	(57/8),(57)&7
  3347                           	line	105
  3348                           ;main.c: 105: RC0=0x00;
  3349  0007' 1007               	bcf	(56/8),(56)&7
  3350  0008' 280B'              	goto	l19
  3351                           	
  3352  0009'                    l20:	
  3353                           	line	109
  3354                           ;main.c: 107: else
  3355                           ;main.c: 108: {
  3356                           ;main.c: 109: RC1=0x01;
  3357  0009' 1487               	bsf	(57/8),(57)&7
  3358                           	line	110
  3359                           ;main.c: 110: RC0=0x01;
  3360  000A' 1407               	bsf	(56/8),(56)&7
  3361                           	
  3362  000B'                    l19:	
  3363  000B' 0008               	return
  3364                           	opt stack 0
  3365                           GLOBAL	__end_of_ToggleBuzzLED
  3366  000C'                    	__end_of_ToggleBuzzLED:
  3367                           ; =============== function _ToggleBuzzLED ends ============
  3368                           
  3369                           psect	text253,local,class=CODE,delta=2
  3370                           global __ptext253
  3371  0000'                    __ptext253:
  3372                           	line	112
  3373                           	signat	_ToggleBuzzLED,88
  3374                           	global	_DoorClose
  3375                           
  3376                           ; *************** function _DoorClose *****************
  3377                           ; Defined at:
  3378                           ;		line 149 in file "D:\Amit\E-Projects\PIC Projects\CMC\iBUTTON\main.c"
  3379                           ; Parameters:    Size  Location     Type
  3380                           ;		None
  3381                           ; Auto vars:     Size  Location     Type
  3382                           ;		None
  3383                           ; Return value:  Size  Location     Type
  3384                           ;		None               void
  3385                           ; Registers used:
  3386                           ;		wreg, status,2, status,0, pclath, cstack
  3387                           ; Tracked objects:
  3388                           ;		On entry : 0/0
  3389                           ;		On exit  : 0/0
  3390                           ;		Unchanged: 0/0
  3391                           ; Data sizes:     COMMON   BANK0   BANK1
  3392                           ;      Locals:         0       0       0
  3393                           ;      Temp:     0
  3394                           ;      Total:    0
  3395                           ; This function calls:
  3396                           ;		_DelayMs
  3397                           ; This function is called by:
  3398                           ;		_LockOperation
  3399                           ; This function uses a non-reentrant model
  3400                           ; 
  3401                           psect	text253
  3402                           	file	"D:\Amit\E-Projects\PIC Projects\CMC\iBUTTON\main.c"
  3403                           	line	149
  3404                           	global	__size_of_DoorClose
  3405  0017                     	__size_of_DoorClose	equ	__end_of_DoorClose-_DoorClose
  3406                           ;main.c: 148: void DoorClose(void)
  3407                           ;main.c: 149: {
  3408                           	
  3409  0000'                    _DoorClose:	
  3410                           	opt stack 4
  3411                           ; Regs used in _DoorClose: [wreg+status,2+status,0+pclath+cstack]
  3412                           	line	153
  3413                           	
  3414  0000'                    l30001655:	
  3415                           ;main.c: 153: if(DoorState != 0)
  3416  0000' 0800'              	movf	(_DoorState),w
  3417  0001' 1D03               	skipz
  3418  0002' 2804'              	goto	u2280
  3419  0003' 2811'              	goto	l30001659
  3420  0004'                    u2280:
  3421                           	
  3422  0004'                    l43:	
  3423                           	line	155
  3424  0004' 1283               	bcf	status, 5	;RP0=0, select bank0
  3425  0005' 1303               	bcf	status, 6	;RP1=0, select bank0
  3426  0006' 1307               	bcf	(62/8),(62)&7
  3427  0007' 1787               	bsf	(63/8),(63)&7
  3428                           	
  3429  0008'                    l30001656:	
  3430                           	line	156
  3431                           ;main.c: 156: DelayMs(400);
  3432  0008' 3090               	movlw	low(0190h)
  3433  0009' 0084'              	movwf	(?_DelayMs)
  3434  000A' 3001               	movlw	high(0190h)
  3435  000B' 0085'              	movwf	((?_DelayMs))+1
  3436  000C' 2000'              	fcall	_DelayMs
  3437                           	
  3438  000D'                    l30001657:	
  3439                           	line	157
  3440  000D' 1283               	bcf	status, 5	;RP0=0, select bank0
  3441  000E' 1303               	bcf	status, 6	;RP1=0, select bank0
  3442  000F' 1307               	bcf	(62/8),(62)&7
  3443                           	
  3444  0010'                    l30001658:	
  3445  0010' 1387               	bcf	(63/8),(63)&7
  3446                           	
  3447  0011'                    l30001659:	
  3448                           	line	159
  3449                           ;main.c: 158: }
  3450                           ;main.c: 159: DoorState=0;
  3451  0011' 1003               	clrc
  3452  0012' 3000               	movlw	0
  3453  0013' 1803               	btfsc	status,0
  3454  0014' 3001               	movlw	1
  3455  0015' 0080'              	movwf	(_DoorState)
  3456                           	
  3457  0016'                    l39:	
  3458  0016' 0008               	return
  3459                           	opt stack 0
  3460                           GLOBAL	__end_of_DoorClose
  3461  0017'                    	__end_of_DoorClose:
  3462                           ; =============== function _DoorClose ends ============
  3463                           
  3464                           psect	text254,local,class=CODE,delta=2
  3465                           global __ptext254
  3466  0000'                    __ptext254:
  3467                           	line	160
  3468                           	signat	_DoorClose,88
  3469                           	global	_InvalidKeyIndication
  3470                           
  3471                           ; *************** function _InvalidKeyIndication *****************
  3472                           ; Defined at:
  3473                           ;		line 386 in file "D:\Amit\E-Projects\PIC Projects\CMC\iBUTTON\main.c"
  3474                           ; Parameters:    Size  Location     Type
  3475                           ;		None
  3476                           ; Auto vars:     Size  Location     Type
  3477                           ;		None
  3478                           ; Return value:  Size  Location     Type
  3479                           ;		None               void
  3480                           ; Registers used:
  3481                           ;		wreg, fsr0l, fsr0h, fsr1l, fsr1h, status,2, status,0, btemp+0, btemp+1, btemp+2, btem
                                 p+3, pclath, cstack
  3482                           ; Tracked objects:
  3483                           ;		On entry : 0/0
  3484                           ;		On exit  : 0/0
  3485                           ;		Unchanged: 0/0
  3486                           ; Data sizes:     COMMON   BANK0   BANK1
  3487                           ;      Locals:         0       1       0
  3488                           ;      Temp:     1
  3489                           ;      Total:    1
  3490                           ; This function calls:
  3491                           ;		_DelayMs
  3492                           ;		_ReadiButton
  3493                           ;		_AvailabeKey
  3494                           ; This function is called by:
  3495                           ;		_LockOperation
  3496                           ; This function uses a non-reentrant model
  3497                           ; 
  3498                           psect	text254
  3499                           	file	"D:\Amit\E-Projects\PIC Projects\CMC\iBUTTON\main.c"
  3500                           	line	386
  3501                           	global	__size_of_InvalidKeyIndication
  3502  0038                     	__size_of_InvalidKeyIndication	equ	__end_of_InvalidKeyIndication-_InvalidKeyIndication
  3503                           ;main.c: 385: void InvalidKeyIndication(void)
  3504                           ;main.c: 386: {
  3505                           	
  3506  0000'                    _InvalidKeyIndication:	
  3507                           	opt stack 4
  3508                           ; Regs used in _InvalidKeyIndication: [allreg]
  3509                           	line	387
  3510                           	
  3511  0000'                    l30001496:	
  3512                           ;main.c: 387: RC1=0x01;
  3513  0000' 1283               	bcf	status, 5	;RP0=0, select bank0
  3514  0001' 1303               	bcf	status, 6	;RP1=0, select bank0
  3515  0002' 1487               	bsf	(57/8),(57)&7
  3516                           	line	388
  3517                           ;main.c: 388: RC0=0x01;
  3518  0003' 1407               	bsf	(56/8),(56)&7
  3519                           	
  3520  0004'                    l30001497:	
  3521                           	line	389
  3522                           ;main.c: 389: TimeCounter=0x00;
  3523  0004' 1003               	clrc
  3524  0005' 3000               	movlw	0
  3525  0006' 1803               	btfsc	status,0
  3526  0007' 3001               	movlw	1
  3527  0008' 0084'              	movwf	(_TimeCounter)
  3528  0009' 282D'              	goto	l30001505
  3529                           	
  3530  000A'                    l30001498:	
  3531                           	line	392
  3532                           ;main.c: 391: {
  3533                           ;main.c: 392: DelayMs(420);
  3534  000A' 30A4               	movlw	low(01A4h)
  3535  000B' 1283               	bcf	status, 5	;RP0=0, select bank0
  3536  000C' 1303               	bcf	status, 6	;RP1=0, select bank0
  3537  000D' 0084'              	movwf	(?_DelayMs)
  3538  000E' 3001               	movlw	high(01A4h)
  3539  000F' 0085'              	movwf	((?_DelayMs))+1
  3540  0010' 2000'              	fcall	_DelayMs
  3541                           	
  3542  0011'                    l30001499:	
  3543                           	line	393
  3544                           ;main.c: 393: TimeCounter++;
  3545  0011' 3001               	movlw	(01h)
  3546  0012' 1283               	bcf	status, 5	;RP0=0, select bank0
  3547  0013' 1303               	bcf	status, 6	;RP1=0, select bank0
  3548  0014' 0086'              	movwf	(??_InvalidKeyIndication+0+0)
  3549  0015' 0806'              	movf	(??_InvalidKeyIndication+0+0),w
  3550  0016' 0784'              	addwf	(_TimeCounter),f
  3551                           	
  3552  0017'                    l30001500:	
  3553                           	line	395
  3554                           ;main.c: 395: if(ReadiButton())
  3555  0017' 2000'              	fcall	_ReadiButton
  3556  0018' 3A00               	xorlw	0
  3557  0019' 1903               	skipnz
  3558  001A' 281C'              	goto	u1971
  3559  001B' 281D'              	goto	u1970
  3560  001C'                    u1971:
  3561  001C' 282D'              	goto	l30001505
  3562  001D'                    u1970:
  3563                           	
  3564  001D'                    l30001501:	
  3565                           	line	397
  3566                           ;main.c: 396: {
  3567                           ;main.c: 397: MatchKey = AvailabeKey();
  3568  001D' 2000'              	fcall	_AvailabeKey
  3569  001E' 0083'              	movwf	(_MatchKey)
  3570                           	
  3571  001F'                    l30001502:	
  3572                           	line	398
  3573                           ;main.c: 398: if(MatchKey != 0)
  3574  001F' 0803'              	movf	(_MatchKey),w
  3575  0020' 1D03               	skipz
  3576  0021' 2823'              	goto	u1980
  3577  0022' 282D'              	goto	l30001505
  3578  0023'                    u1980:
  3579                           	
  3580  0023'                    l30001503:	
  3581                           	line	400
  3582                           ;main.c: 399: {
  3583                           ;main.c: 400: RC1=0x00;
  3584  0023' 1283               	bcf	status, 5	;RP0=0, select bank0
  3585  0024' 1303               	bcf	status, 6	;RP1=0, select bank0
  3586  0025' 1087               	bcf	(57/8),(57)&7
  3587                           	line	401
  3588                           ;main.c: 401: RC0=0x00;
  3589  0026' 1007               	bcf	(56/8),(56)&7
  3590                           	
  3591  0027'                    l30001504:	
  3592                           	line	402
  3593                           ;main.c: 402: DelayMs(500);
  3594  0027' 30F4               	movlw	low(01F4h)
  3595  0028' 0084'              	movwf	(?_DelayMs)
  3596  0029' 3001               	movlw	high(01F4h)
  3597  002A' 0085'              	movwf	((?_DelayMs))+1
  3598  002B' 2000'              	fcall	_DelayMs
  3599  002C' 2833'              	goto	l143
  3600                           	
  3601  002D'                    l30001505:	
  3602                           	line	390
  3603  002D' 30F0               	movlw	(0F0h)
  3604  002E' 0204'              	subwf	(_TimeCounter),w
  3605  002F' 1C03               	skipc
  3606  0030' 2832'              	goto	u1991
  3607  0031' 2833'              	goto	u1990
  3608  0032'                    u1991:
  3609  0032' 280A'              	goto	l30001498
  3610  0033'                    u1990:
  3611                           	
  3612  0033'                    l143:	
  3613                           	line	407
  3614                           ;main.c: 404: }
  3615                           ;main.c: 405: }
  3616                           ;main.c: 406: }
  3617                           ;main.c: 407: RC1=0x00;
  3618  0033' 1283               	bcf	status, 5	;RP0=0, select bank0
  3619  0034' 1303               	bcf	status, 6	;RP1=0, select bank0
  3620  0035' 1087               	bcf	(57/8),(57)&7
  3621                           	line	408
  3622                           ;main.c: 408: RC0=0x00;
  3623  0036' 1007               	bcf	(56/8),(56)&7
  3624                           	
  3625  0037'                    l140:	
  3626  0037' 0008               	return
  3627                           	opt stack 0
  3628                           GLOBAL	__end_of_InvalidKeyIndication
  3629  0038'                    	__end_of_InvalidKeyIndication:
  3630                           ; =============== function _InvalidKeyIndication ends ============
  3631                           
  3632                           psect	text255,local,class=CODE,delta=2
  3633                           global __ptext255
  3634  0000'                    __ptext255:
  3635                           	line	409
  3636                           	signat	_InvalidKeyIndication,88
  3637                           	global	_BuzzerBeep
  3638                           
  3639                           ; *************** function _BuzzerBeep *****************
  3640                           ; Defined at:
  3641                           ;		line 163 in file "D:\Amit\E-Projects\PIC Projects\CMC\iBUTTON\main.c"
  3642                           ; Parameters:    Size  Location     Type
  3643                           ;  BeepNum         1    wreg     unsigned char 
  3644                           ;  LONG_BEEP       1   15[BANK0 ] unsigned char 
  3645                           ; Auto vars:     Size  Location     Type
  3646                           ;  BeepNum         1   11[BANK0 ] unsigned char 
  3647                           ;  BeepTime        2   12[BANK0 ] unsigned int 
  3648                           ;  BeepCnt         1   14[BANK0 ] unsigned char 
  3649                           ; Return value:  Size  Location     Type
  3650                           ;		None               void
  3651                           ; Registers used:
  3652                           ;		wreg, status,2, status,0, pclath, cstack
  3653                           ; Tracked objects:
  3654                           ;		On entry : 0/0
  3655                           ;		On exit  : 0/0
  3656                           ;		Unchanged: 0/0
  3657                           ; Data sizes:     COMMON   BANK0   BANK1
  3658                           ;      Locals:         0      10       0
  3659                           ;      Temp:     5
  3660                           ;      Total:   10
  3661                           ; This function calls:
  3662                           ;		_DelayMs
  3663                           ; This function is called by:
  3664                           ;		_Configuration
  3665                           ;		_ConfigureMasterKey
  3666                           ;		_LockOperation
  3667                           ;		_main
  3668                           ; This function uses a non-reentrant model
  3669                           ; 
  3670                           psect	text255
  3671                           	file	"D:\Amit\E-Projects\PIC Projects\CMC\iBUTTON\main.c"
  3672                           	line	163
  3673                           	global	__size_of_BuzzerBeep
  3674  004D                     	__size_of_BuzzerBeep	equ	__end_of_BuzzerBeep-_BuzzerBeep
  3675                           ;main.c: 162: void BuzzerBeep(unsigned char BeepNum, unsigned char LONG_BEEP)
  3676                           ;main.c: 163: {
  3677                           	
  3678  0000'                    _BuzzerBeep:	
  3679                           	opt stack 3
  3680                           ; Regs used in _BuzzerBeep: [wreg+status,2+status,0+pclath+cstack]
  3681                           ;BuzzerBeep@BeepNum stored from wreg
  3682                           	line	165
  3683  0000' 1283               	bcf	status, 5	;RP0=0, select bank0
  3684  0001' 1303               	bcf	status, 6	;RP1=0, select bank0
  3685  0002' 008B'              	movwf	(BuzzerBeep@BeepNum)
  3686                           	
  3687  0003'                    l30001366:	
  3688                           ;main.c: 165: unsigned int BeepTime = 0;
  3689  0003' 3000               	movlw	low(0)
  3690  0004' 008C'              	movwf	(BuzzerBeep@BeepTime)
  3691  0005' 3000               	movlw	high(0)
  3692  0006' 008D'              	movwf	((BuzzerBeep@BeepTime))+1
  3693                           	
  3694  0007'                    l30001367:	
  3695                           	line	166
  3696                           ;main.c: 166: if(LONG_BEEP)
  3697  0007' 080F'              	movf	(BuzzerBeep@LONG_BEEP),w
  3698  0008' 1D03               	skipz
  3699  0009' 280B'              	goto	u1590
  3700  000A' 2810'              	goto	l30001369
  3701  000B'                    u1590:
  3702                           	
  3703  000B'                    l30001368:	
  3704                           	line	167
  3705                           ;main.c: 167: BeepTime = (4*0x64);
  3706  000B' 3090               	movlw	low(0190h)
  3707  000C' 008C'              	movwf	(BuzzerBeep@BeepTime)
  3708  000D' 3001               	movlw	high(0190h)
  3709  000E' 008D'              	movwf	((BuzzerBeep@BeepTime))+1
  3710  000F' 2814'              	goto	l30001370
  3711                           	
  3712  0010'                    l30001369:	
  3713                           	line	169
  3714                           ;main.c: 168: else
  3715                           ;main.c: 169: BeepTime = 0x64;
  3716  0010' 3064               	movlw	low(064h)
  3717  0011' 008C'              	movwf	(BuzzerBeep@BeepTime)
  3718  0012' 3000               	movlw	high(064h)
  3719  0013' 008D'              	movwf	((BuzzerBeep@BeepTime))+1
  3720                           	
  3721  0014'                    l30001370:	
  3722                           	line	171
  3723                           ;main.c: 171: RC1=0x00;
  3724  0014' 1087               	bcf	(57/8),(57)&7
  3725                           	
  3726  0015'                    l30001371:	
  3727                           	line	172
  3728                           ;main.c: 172: for(BeepCnt=0; BeepCnt<((BeepNum * 2) - 1); BeepCnt++)
  3729  0015' 1003               	clrc
  3730  0016' 3000               	movlw	0
  3731  0017' 1803               	btfsc	status,0
  3732  0018' 3001               	movlw	1
  3733  0019' 008E'              	movwf	(BuzzerBeep@BeepCnt)
  3734  001A' 282C'              	goto	l30001375
  3735                           	
  3736  001B'                    l30001372:	
  3737                           	line	174
  3738                           ;main.c: 173: {
  3739                           ;main.c: 174: RC1 = !RC1;
  3740  001B' 3002               	movlw	1<<((57)&7)
  3741  001C' 1283               	bcf	status, 5	;RP0=0, select bank0
  3742  001D' 1303               	bcf	status, 6	;RP1=0, select bank0
  3743  001E' 0687               	xorwf	((57)/8),f
  3744                           	
  3745  001F'                    l30001373:	
  3746                           	line	175
  3747                           ;main.c: 175: DelayMs(BeepTime);
  3748  001F' 080D'              	movf	(BuzzerBeep@BeepTime+1),w
  3749  0020' 0185'              	clrf	(?_DelayMs+1)
  3750  0021' 0785'              	addwf	(?_DelayMs+1)
  3751  0022' 080C'              	movf	(BuzzerBeep@BeepTime),w
  3752  0023' 0184'              	clrf	(?_DelayMs)
  3753  0024' 0784'              	addwf	(?_DelayMs)
  3754                           
  3755  0025' 2000'              	fcall	_DelayMs
  3756                           	
  3757  0026'                    l30001374:	
  3758                           	line	172
  3759  0026' 3001               	movlw	(01h)
  3760  0027' 1283               	bcf	status, 5	;RP0=0, select bank0
  3761  0028' 1303               	bcf	status, 6	;RP1=0, select bank0
  3762  0029' 0086'              	movwf	(??_BuzzerBeep+0+0)
  3763  002A' 0806'              	movf	(??_BuzzerBeep+0+0),w
  3764  002B' 078E'              	addwf	(BuzzerBeep@BeepCnt),f
  3765                           	
  3766  002C'                    l30001375:	
  3767  002C' 080B'              	movf	(BuzzerBeep@BeepNum),w
  3768  002D' 0086'              	movwf	(??_BuzzerBeep+0+0)
  3769  002E' 0187'              	clrf	(??_BuzzerBeep+0+0+1)
  3770  002F' 3001               	movlw	01h
  3771  0030' 0088'              	movwf	(??_BuzzerBeep+2+0)
  3772  0031'                    u1605:
  3773  0031' 1003               	clrc
  3774  0032' 0D86'              	rlf	(??_BuzzerBeep+0+0),f
  3775  0033' 0D87'              	rlf	(??_BuzzerBeep+0+1),f
  3776  0034' 0B88'              	decfsz	(??_BuzzerBeep+2+0),f
  3777  0035' 2831'              	goto	u1605
  3778  0036' 0806'              	movf	0+(??_BuzzerBeep+0+0),w
  3779  0037' 3EFF               	addlw	low(-1)
  3780  0038' 0089'              	movwf	(??_BuzzerBeep+3+0)
  3781  0039' 0807'              	movf	1+(??_BuzzerBeep+0+0),w
  3782  003A' 1803               	skipnc
  3783  003B' 3E01               	addlw	1
  3784  003C' 3EFF               	addlw	high(-1)
  3785  003D' 008A'              	movwf	1+(??_BuzzerBeep+3+0)
  3786  003E' 080A'              	movf	1+(??_BuzzerBeep+3+0),w
  3787  003F' 3A80               	xorlw	80h
  3788  0040' 3C80               	sublw	080h
  3789  0041' 1D03               	skipz
  3790  0042' 2845'              	goto	u1615
  3791  0043' 0809'              	movf	0+(??_BuzzerBeep+3+0),w
  3792  0044' 020E'              	subwf	(BuzzerBeep@BeepCnt),w
  3793  0045'                    u1615:
  3794                           
  3795  0045' 1C03               	skipc
  3796  0046' 2848'              	goto	u1611
  3797  0047' 2849'              	goto	u1610
  3798  0048'                    u1611:
  3799  0048' 281B'              	goto	l30001372
  3800  0049'                    u1610:
  3801                           	
  3802  0049'                    l51:	
  3803                           	line	177
  3804                           ;main.c: 176: }
  3805                           ;main.c: 177: RC1=0x00;
  3806  0049' 1283               	bcf	status, 5	;RP0=0, select bank0
  3807  004A' 1303               	bcf	status, 6	;RP1=0, select bank0
  3808  004B' 1087               	bcf	(57/8),(57)&7
  3809                           	
  3810  004C'                    l47:	
  3811  004C' 0008               	return
  3812                           	opt stack 0
  3813                           GLOBAL	__end_of_BuzzerBeep
  3814  004D'                    	__end_of_BuzzerBeep:
  3815                           ; =============== function _BuzzerBeep ends ============
  3816                           
  3817                           psect	text256,local,class=CODE,delta=2
  3818                           global __ptext256
  3819  0000'                    __ptext256:
  3820                           	line	178
  3821                           	signat	_BuzzerBeep,8312
  3822                           	global	_Wait_With_LED_Blink
  3823                           
  3824                           ; *************** function _Wait_With_LED_Blink *****************
  3825                           ; Defined at:
  3826                           ;		line 303 in file "D:\Amit\E-Projects\PIC Projects\CMC\iBUTTON\main.c"
  3827                           ; Parameters:    Size  Location     Type
  3828                           ;		None
  3829                           ; Auto vars:     Size  Location     Type
  3830                           ;  k               2    1[COMMON] unsigned int 
  3831                           ; Return value:  Size  Location     Type
  3832                           ;		None               void
  3833                           ; Registers used:
  3834                           ;		wreg, status,2, status,0, pclath, cstack
  3835                           ; Tracked objects:
  3836                           ;		On entry : 0/0
  3837                           ;		On exit  : 0/0
  3838                           ;		Unchanged: 0/0
  3839                           ; Data sizes:     COMMON   BANK0   BANK1
  3840                           ;      Locals:         2       0       0
  3841                           ;      Temp:     0
  3842                           ;      Total:    2
  3843                           ; This function calls:
  3844                           ;		_ToggleLED
  3845                           ;		_CheckForiButtonDisconnect
  3846                           ; This function is called by:
  3847                           ;		_Configuration
  3848                           ;		_ConfigureMasterKey
  3849                           ; This function uses a non-reentrant model
  3850                           ; 
  3851                           psect	text256
  3852                           	file	"D:\Amit\E-Projects\PIC Projects\CMC\iBUTTON\main.c"
  3853                           	line	303
  3854                           	global	__size_of_Wait_With_LED_Blink
  3855  001C                     	__size_of_Wait_With_LED_Blink	equ	__end_of_Wait_With_LED_Blink-_Wait_With_LED_Blink
  3856                           ;main.c: 302: void Wait_With_LED_Blink(void)
  3857                           ;main.c: 303: {
  3858                           	
  3859  0000'                    _Wait_With_LED_Blink:	
  3860                           	opt stack 3
  3861                           ; Regs used in _Wait_With_LED_Blink: [wreg+status,2+status,0+pclath+cstack]
  3862                           	
  3863  0000'                    l30001569:	
  3864  0000' 2815'              	goto	l115
  3865                           	
  3866  0001'                    l30001570:	
  3867                           	line	307
  3868                           ;main.c: 306: {
  3869                           ;main.c: 307: for(k=0;k<13500;k++);
  3870  0001' 3000               	movlw	low(0)
  3871  0002' 0081'              	movwf	(Wait_With_LED_Blink@k)
  3872  0003' 3000               	movlw	high(0)
  3873  0004' 0082'              	movwf	((Wait_With_LED_Blink@k))+1
  3874                           	
  3875  0005'                    l30001572:	
  3876  0005' 3001               	movlw	low(01h)
  3877  0006' 0781'              	addwf	(Wait_With_LED_Blink@k),f
  3878  0007' 1803               	skipnc
  3879  0008' 0A82'              	incf	(Wait_With_LED_Blink@k+1),f
  3880  0009' 3000               	movlw	high(01h)
  3881  000A' 0782'              	addwf	(Wait_With_LED_Blink@k+1),f
  3882  000B' 3034               	movlw	high(034BCh)
  3883  000C' 0202'              	subwf	(Wait_With_LED_Blink@k+1),w
  3884  000D' 30BC               	movlw	low(034BCh)
  3885  000E' 1903               	skipnz
  3886  000F' 0201'              	subwf	(Wait_With_LED_Blink@k),w
  3887  0010' 1C03               	skipc
  3888  0011' 2813'              	goto	u2081
  3889  0012' 2814'              	goto	u2080
  3890  0013'                    u2081:
  3891  0013' 2805'              	goto	l30001572
  3892  0014'                    u2080:
  3893                           	
  3894  0014'                    l30001573:	
  3895                           	line	308
  3896                           ;main.c: 308: ToggleLED();
  3897  0014' 2000'              	fcall	_ToggleLED
  3898                           	
  3899  0015'                    l115:	
  3900                           	line	305
  3901  0015' 2000'              	fcall	_CheckForiButtonDisconnect
  3902  0016' 3800               	iorlw	0
  3903  0017' 1D03               	skipz
  3904  0018' 281A'              	goto	u2091
  3905  0019' 281B'              	goto	u2090
  3906  001A'                    u2091:
  3907  001A' 2801'              	goto	l30001570
  3908  001B'                    u2090:
  3909                           	
  3910  001B'                    l114:	
  3911  001B' 0008               	return
  3912                           	opt stack 0
  3913                           GLOBAL	__end_of_Wait_With_LED_Blink
  3914  001C'                    	__end_of_Wait_With_LED_Blink:
  3915                           ; =============== function _Wait_With_LED_Blink ends ============
  3916                           
  3917                           psect	text257,local,class=CODE,delta=2
  3918                           global __ptext257
  3919  0000'                    __ptext257:
  3920                           	line	310
  3921                           	signat	_Wait_With_LED_Blink,88
  3922                           	global	_ClearAllKeys
  3923                           
  3924                           ; *************** function _ClearAllKeys *****************
  3925                           ; Defined at:
  3926                           ;		line 276 in file "D:\Amit\E-Projects\PIC Projects\CMC\iBUTTON\main.c"
  3927                           ; Parameters:    Size  Location     Type
  3928                           ;  Master_Also     1    wreg     unsigned char 
  3929                           ; Auto vars:     Size  Location     Type
  3930                           ;  Master_Also     1    7[BANK0 ] unsigned char 
  3931                           ;  i               1    8[BANK0 ] unsigned char 
  3932                           ; Return value:  Size  Location     Type
  3933                           ;		None               void
  3934                           ; Registers used:
  3935                           ;		wreg, fsr0l, fsr0h, status,2, status,0, pclath, cstack
  3936                           ; Tracked objects:
  3937                           ;		On entry : 0/0
  3938                           ;		On exit  : 0/0
  3939                           ;		Unchanged: 0/0
  3940                           ; Data sizes:     COMMON   BANK0   BANK1
  3941                           ;      Locals:         1       2       0
  3942                           ;      Temp:     1
  3943                           ;      Total:    3
  3944                           ; This function calls:
  3945                           ;		_EEPROMWriteKeyByte
  3946                           ; This function is called by:
  3947                           ;		_Configuration
  3948                           ;		_main
  3949                           ; This function uses a non-reentrant model
  3950                           ; 
  3951                           psect	text257
  3952                           	file	"D:\Amit\E-Projects\PIC Projects\CMC\iBUTTON\main.c"
  3953                           	line	276
  3954                           	global	__size_of_ClearAllKeys
  3955  0037                     	__size_of_ClearAllKeys	equ	__end_of_ClearAllKeys-_ClearAllKeys
  3956                           ;main.c: 275: void ClearAllKeys(unsigned char Master_Also)
  3957                           ;main.c: 276: {
  3958                           	
  3959  0000'                    _ClearAllKeys:	
  3960                           	opt stack 3
  3961                           ; Regs used in _ClearAllKeys: [wreg-fsr0h+status,2+status,0+pclath+cstack]
  3962                           ;ClearAllKeys@Master_Also stored from wreg
  3963                           	line	279
  3964  0000' 1283               	bcf	status, 5	;RP0=0, select bank0
  3965  0001' 1303               	bcf	status, 6	;RP1=0, select bank0
  3966  0002' 0087'              	movwf	(ClearAllKeys@Master_Also)
  3967                           	
  3968  0003'                    l30001605:	
  3969                           ;main.c: 277: unsigned char i;
  3970                           ;main.c: 279: for(i=0;i<8;i++)
  3971  0003' 1003               	clrc
  3972  0004' 3000               	movlw	0
  3973  0005' 1803               	btfsc	status,0
  3974  0006' 3001               	movlw	1
  3975  0007' 0088'              	movwf	(ClearAllKeys@i)
  3976                           	
  3977  0008'                    l30001608:	
  3978                           	line	281
  3979                           ;main.c: 280: {
  3980                           ;main.c: 281: iButtonKey[i]=0x55;
  3981  0008' 3055               	movlw	(055h)
  3982  0009' 0082'              	movwf	(??_ClearAllKeys+0+0)
  3983  000A' 0808'              	movf	(ClearAllKeys@i),w
  3984  000B' 3E00'              	addlw	(_iButtonKey)&0ffh
  3985  000C' 0084               	movwf	fsr0
  3986  000D' 0802'              	movf	(??_ClearAllKeys+0+0),w
  3987  000E' 1383               	bcf	status, 7	;select IRP bank0
  3988  000F' 0080               	movwf	indf
  3989                           	
  3990  0010'                    l30001609:	
  3991                           	line	279
  3992  0010' 3001               	movlw	(01h)
  3993  0011' 0082'              	movwf	(??_ClearAllKeys+0+0)
  3994  0012' 0802'              	movf	(??_ClearAllKeys+0+0),w
  3995  0013' 0788'              	addwf	(ClearAllKeys@i),f
  3996                           	
  3997  0014'                    l30001610:	
  3998  0014' 3008               	movlw	(08h)
  3999  0015' 0208'              	subwf	(ClearAllKeys@i),w
  4000  0016' 1C03               	skipc
  4001  0017' 2819'              	goto	u2161
  4002  0018' 281A'              	goto	u2160
  4003  0019'                    u2161:
  4004  0019' 2808'              	goto	l30001608
  4005  001A'                    u2160:
  4006                           	
  4007  001A'                    l30001611:	
  4008                           	line	283
  4009                           ;main.c: 282: }
  4010                           ;main.c: 283: i=0x01;
  4011  001A' 0188'              	clrf	(ClearAllKeys@i)
  4012  001B' 1403               	bsf	status,0
  4013  001C' 0D88'              	rlf	(ClearAllKeys@i),f
  4014                           	
  4015  001D'                    l30001612:	
  4016                           	line	284
  4017                           ;main.c: 284: if(Master_Also)
  4018  001D' 0807'              	movf	(ClearAllKeys@Master_Also),w
  4019  001E' 1D03               	skipz
  4020  001F' 2821'              	goto	u2170
  4021  0020' 2826'              	goto	l30001614
  4022  0021'                    u2170:
  4023                           	
  4024  0021'                    l30001613:	
  4025                           	line	285
  4026                           ;main.c: 285: i=0x00;
  4027  0021' 1003               	clrc
  4028  0022' 3000               	movlw	0
  4029  0023' 1803               	btfsc	status,0
  4030  0024' 3001               	movlw	1
  4031  0025' 0088'              	movwf	(ClearAllKeys@i)
  4032                           	
  4033  0026'                    l30001614:	
  4034                           	line	286
  4035                           ;main.c: 286: for(;i<23;i++)
  4036  0026' 3017               	movlw	(017h)
  4037  0027' 0208'              	subwf	(ClearAllKeys@i),w
  4038  0028' 1C03               	skipc
  4039  0029' 282B'              	goto	u2181
  4040  002A' 282C'              	goto	u2180
  4041  002B'                    u2181:
  4042  002B' 282D'              	goto	l30001616
  4043  002C'                    u2180:
  4044  002C' 2836'              	goto	l102
  4045                           	
  4046  002D'                    l30001616:	
  4047                           	line	288
  4048                           ;main.c: 287: {
  4049                           ;main.c: 288: EEPROMWriteKeyByte(i);
  4050  002D' 0808'              	movf	(ClearAllKeys@i),w
  4051  002E' 2000'              	fcall	_EEPROMWriteKeyByte
  4052                           	
  4053  002F'                    l30001617:	
  4054                           	line	286
  4055  002F' 3001               	movlw	(01h)
  4056  0030' 0082'              	movwf	(??_ClearAllKeys+0+0)
  4057  0031' 0802'              	movf	(??_ClearAllKeys+0+0),w
  4058  0032' 1283               	bcf	status, 5	;RP0=0, select bank0
  4059  0033' 1303               	bcf	status, 6	;RP1=0, select bank0
  4060  0034' 0788'              	addwf	(ClearAllKeys@i),f
  4061  0035' 2826'              	goto	l30001614
  4062                           	
  4063  0036'                    l102:	
  4064  0036' 0008               	return
  4065                           	opt stack 0
  4066                           GLOBAL	__end_of_ClearAllKeys
  4067  0037'                    	__end_of_ClearAllKeys:
  4068                           ; =============== function _ClearAllKeys ends ============
  4069                           
  4070                           psect	text258,local,class=CODE,delta=2
  4071                           global __ptext258
  4072  0000'                    __ptext258:
  4073                           	line	290
  4074                           	signat	_ClearAllKeys,4216
  4075                           	global	_EEPROMWriteKey
  4076                           
  4077                           ; *************** function _EEPROMWriteKey *****************
  4078                           ; Defined at:
  4079                           ;		line 229 in file "D:\Amit\E-Projects\PIC Projects\CMC\iBUTTON\main.c"
  4080                           ; Parameters:    Size  Location     Type
  4081                           ;  WriteAddress    1    wreg     unsigned char 
  4082                           ; Auto vars:     Size  Location     Type
  4083                           ;  WriteAddress    1    6[BANK0 ] unsigned char 
  4084                           ;  KeyLength       1    7[BANK0 ] unsigned char 
  4085                           ; Return value:  Size  Location     Type
  4086                           ;		None               void
  4087                           ; Registers used:
  4088                           ;		wreg, fsr0l, fsr0h, status,2, status,0, pclath, cstack
  4089                           ; Tracked objects:
  4090                           ;		On entry : 0/0
  4091                           ;		On exit  : 0/0
  4092                           ;		Unchanged: 0/0
  4093                           ; Data sizes:     COMMON   BANK0   BANK1
  4094                           ;      Locals:         2       2       0
  4095                           ;      Temp:     2
  4096                           ;      Total:    4
  4097                           ; This function calls:
  4098                           ;		_WriteEEPROM
  4099                           ;		_DelayMs
  4100                           ; This function is called by:
  4101                           ;		_Configuration
  4102                           ;		_ConfigureMasterKey
  4103                           ; This function uses a non-reentrant model
  4104                           ; 
  4105                           psect	text258
  4106                           	file	"D:\Amit\E-Projects\PIC Projects\CMC\iBUTTON\main.c"
  4107                           	line	229
  4108                           	global	__size_of_EEPROMWriteKey
  4109  0043                     	__size_of_EEPROMWriteKey	equ	__end_of_EEPROMWriteKey-_EEPROMWriteKey
  4110                           ;main.c: 228: void EEPROMWriteKey(unsigned char WriteAddress)
  4111                           ;main.c: 229: {
  4112                           	
  4113  0000'                    _EEPROMWriteKey:	
  4114                           	opt stack 3
  4115                           ; Regs used in _EEPROMWriteKey: [wreg-fsr0h+status,2+status,0+pclath+cstack]
  4116                           ;EEPROMWriteKey@WriteAddress stored from wreg
  4117  0000' 1283               	bcf	status, 5	;RP0=0, select bank0
  4118  0001' 1303               	bcf	status, 6	;RP1=0, select bank0
  4119  0002' 0086'              	movwf	(EEPROMWriteKey@WriteAddress)
  4120                           	
  4121  0003'                    l79:	
  4122                           	
  4123  0003'                    l30001660:	
  4124                           	line	231
  4125  0003' 307E               	movlw	(07Eh)
  4126  0004' 0080'              	movwf	(??_EEPROMWriteKey+0+0)
  4127  0005' 0800'              	movf	(??_EEPROMWriteKey+0+0),w
  4128  0006' 058B               	andwf	(11),f	;volatile
  4129                           	
  4130  0007'                    l78:	
  4131                           	line	232
  4132                           ;main.c: 232: WriteAddress = WriteAddress * 8;
  4133  0007' 0806'              	movf	(EEPROMWriteKey@WriteAddress),w
  4134  0008' 0080'              	movwf	(??_EEPROMWriteKey+0+0)
  4135  0009' 3002               	movlw	(03h)-1
  4136  000A'                    u2295:
  4137  000A' 1003               	clrc
  4138  000B' 0D80'              	rlf	(??_EEPROMWriteKey+0+0),f
  4139  000C' 3EFF               	addlw	-1
  4140  000D' 1D03               	skipz
  4141  000E' 280A'              	goto	u2295
  4142  000F' 1003               	clrc
  4143  0010' 0D00'              	rlf	(??_EEPROMWriteKey+0+0),w
  4144  0011' 0086'              	movwf	(EEPROMWriteKey@WriteAddress)
  4145                           	line	233
  4146                           ;main.c: 233: for(KeyLength=0;KeyLength<8;KeyLength++)
  4147  0012' 1003               	clrc
  4148  0013' 3000               	movlw	0
  4149  0014' 1803               	btfsc	status,0
  4150  0015' 3001               	movlw	1
  4151  0016' 0087'              	movwf	(EEPROMWriteKey@KeyLength)
  4152                           	
  4153  0017'                    l30001663:	
  4154                           	line	235
  4155                           ;main.c: 234: {
  4156                           ;main.c: 235: DataEEAddr = WriteAddress++;
  4157  0017' 0806'              	movf	(EEPROMWriteKey@WriteAddress),w
  4158  0018' 0080'              	movwf	(??_EEPROMWriteKey+0+0)
  4159  0019' 0181'              	clrf	(??_EEPROMWriteKey+0+0+1)
  4160  001A' 0800'              	movf	0+(??_EEPROMWriteKey+0+0),w
  4161  001B' 0080'              	movwf	(_DataEEAddr)
  4162  001C' 0801'              	movf	1+(??_EEPROMWriteKey+0+0),w
  4163  001D' 0081'              	movwf	(_DataEEAddr+1)
  4164                           	
  4165  001E'                    l30001664:	
  4166  001E' 3001               	movlw	(01h)
  4167  001F' 0080'              	movwf	(??_EEPROMWriteKey+0+0)
  4168  0020' 0800'              	movf	(??_EEPROMWriteKey+0+0),w
  4169  0021' 0786'              	addwf	(EEPROMWriteKey@WriteAddress),f
  4170                           	
  4171  0022'                    l30001665:	
  4172                           	line	236
  4173                           ;main.c: 236: DataEEData = iButtonKey[KeyLength];
  4174  0022' 0807'              	movf	(EEPROMWriteKey@KeyLength),w
  4175  0023' 3E00'              	addlw	(_iButtonKey)&0ffh
  4176  0024' 0084               	movwf	fsr0
  4177  0025' 1383               	bcf	status, 7	;select IRP bank0
  4178  0026' 0800               	movf	indf,w
  4179  0027' 0080'              	movwf	(??_EEPROMWriteKey+0+0)
  4180  0028' 0181'              	clrf	(??_EEPROMWriteKey+0+0+1)
  4181  0029' 0800'              	movf	0+(??_EEPROMWriteKey+0+0),w
  4182  002A' 0082'              	movwf	(_DataEEData)
  4183  002B' 0801'              	movf	1+(??_EEPROMWriteKey+0+0),w
  4184  002C' 0083'              	movwf	(_DataEEData+1)
  4185                           	
  4186  002D'                    l30001666:	
  4187                           	line	237
  4188                           ;main.c: 237: WriteEEPROM();
  4189  002D' 2000'              	fcall	_WriteEEPROM
  4190                           	
  4191  002E'                    l30001667:	
  4192                           	line	238
  4193                           ;main.c: 238: DelayMs(10);
  4194  002E' 300A               	movlw	low(0Ah)
  4195  002F' 1283               	bcf	status, 5	;RP0=0, select bank0
  4196  0030' 1303               	bcf	status, 6	;RP1=0, select bank0
  4197  0031' 0084'              	movwf	(?_DelayMs)
  4198  0032' 3000               	movlw	high(0Ah)
  4199  0033' 0085'              	movwf	((?_DelayMs))+1
  4200  0034' 2000'              	fcall	_DelayMs
  4201                           	
  4202  0035'                    l30001668:	
  4203                           	line	233
  4204  0035' 3001               	movlw	(01h)
  4205  0036' 0080'              	movwf	(??_EEPROMWriteKey+0+0)
  4206  0037' 0800'              	movf	(??_EEPROMWriteKey+0+0),w
  4207  0038' 1283               	bcf	status, 5	;RP0=0, select bank0
  4208  0039' 1303               	bcf	status, 6	;RP1=0, select bank0
  4209  003A' 0787'              	addwf	(EEPROMWriteKey@KeyLength),f
  4210                           	
  4211  003B'                    l30001669:	
  4212  003B' 3008               	movlw	(08h)
  4213  003C' 0207'              	subwf	(EEPROMWriteKey@KeyLength),w
  4214  003D' 1C03               	skipc
  4215  003E' 2840'              	goto	u2301
  4216  003F' 2841'              	goto	u2300
  4217  0040'                    u2301:
  4218  0040' 2817'              	goto	l30001663
  4219  0041'                    u2300:
  4220                           	
  4221  0041'                    l85:	
  4222                           	line	240
  4223  0041' 178B               	bsf	(11)+(7/8),(7)&7	;volatile
  4224                           	
  4225  0042'                    l76:	
  4226  0042' 0008               	return
  4227                           	opt stack 0
  4228                           GLOBAL	__end_of_EEPROMWriteKey
  4229  0043'                    	__end_of_EEPROMWriteKey:
  4230                           ; =============== function _EEPROMWriteKey ends ============
  4231                           
  4232                           psect	text259,local,class=CODE,delta=2
  4233                           global __ptext259
  4234  0000'                    __ptext259:
  4235                           	line	241
  4236                           	signat	_EEPROMWriteKey,4216
  4237                           	global	_AvailabeKey
  4238                           
  4239                           ; *************** function _AvailabeKey *****************
  4240                           ; Defined at:
  4241                           ;		line 258 in file "D:\Amit\E-Projects\PIC Projects\CMC\iBUTTON\main.c"
  4242                           ; Parameters:    Size  Location     Type
  4243                           ;		None
  4244                           ; Auto vars:     Size  Location     Type
  4245                           ;  i               1    4[BANK0 ] unsigned char 
  4246                           ;  key             1    3[BANK0 ] unsigned char 
  4247                           ; Return value:  Size  Location     Type
  4248                           ;                  1    wreg      unsigned char 
  4249                           ; Registers used:
  4250                           ;		wreg, fsr0l, fsr0h, status,2, status,0, pclath, cstack
  4251                           ; Tracked objects:
  4252                           ;		On entry : 0/0
  4253                           ;		On exit  : 0/0
  4254                           ;		Unchanged: 0/0
  4255                           ; Data sizes:     COMMON   BANK0   BANK1
  4256                           ;      Locals:         0       3       0
  4257                           ;      Temp:     1
  4258                           ;      Total:    3
  4259                           ; This function calls:
  4260                           ;		_EEPROMReadKey
  4261                           ;		_strcmp
  4262                           ; This function is called by:
  4263                           ;		_Configuration
  4264                           ;		_InvalidKeyIndication
  4265                           ;		_LockOperation
  4266                           ; This function uses a non-reentrant model
  4267                           ; 
  4268                           psect	text259
  4269                           	file	"D:\Amit\E-Projects\PIC Projects\CMC\iBUTTON\main.c"
  4270                           	line	258
  4271                           	global	__size_of_AvailabeKey
  4272  0032                     	__size_of_AvailabeKey	equ	__end_of_AvailabeKey-_AvailabeKey
  4273                           ;main.c: 257: unsigned char AvailabeKey(void)
  4274                           ;main.c: 258: {
  4275                           	
  4276  0000'                    _AvailabeKey:	
  4277                           	opt stack 3
  4278                           ; Regs used in _AvailabeKey: [wreg-fsr0h+status,2+status,0+pclath+cstack]
  4279                           	line	260
  4280                           	
  4281  0000'                    l30001478:	
  4282                           ;main.c: 259: unsigned char i, key;
  4283                           ;main.c: 260: for(i=0;i<23;i++)
  4284  0000' 1003               	clrc
  4285  0001' 3000               	movlw	0
  4286  0002' 1803               	btfsc	status,0
  4287  0003' 3001               	movlw	1
  4288  0004' 1283               	bcf	status, 5	;RP0=0, select bank0
  4289  0005' 1303               	bcf	status, 6	;RP1=0, select bank0
  4290  0006' 0084'              	movwf	(AvailabeKey@i)
  4291                           	
  4292  0007'                    l30001481:	
  4293                           	line	262
  4294                           ;main.c: 261: {
  4295                           ;main.c: 262: EEPROMReadKey(i);
  4296  0007' 0804'              	movf	(AvailabeKey@i),w
  4297  0008' 2000'              	fcall	_EEPROMReadKey
  4298                           	line	263
  4299                           ;main.c: 263: key = strcmp(iButtonKey,EEPROMKey);
  4300  0009' 3000'              	movlw	((_EEPROMKey))&0ffh
  4301  000A' 1283               	bcf	status, 5	;RP0=0, select bank0
  4302  000B' 1303               	bcf	status, 6	;RP1=0, select bank0
  4303  000C' 0080'              	movwf	(?_strcmp)
  4304  000D' 3000'              	movlw	((_iButtonKey))&0ffh
  4305  000E' 2000'              	fcall	_strcmp
  4306  000F' 1283               	bcf	status, 5	;RP0=0, select bank0
  4307  0010' 1303               	bcf	status, 6	;RP1=0, select bank0
  4308  0011' 0083'              	movwf	(AvailabeKey@key)
  4309                           	
  4310  0012'                    l30001482:	
  4311                           	line	264
  4312                           ;main.c: 264: if(key)
  4313  0012' 0803'              	movf	(AvailabeKey@key),w
  4314  0013' 1D03               	skipz
  4315  0014' 2816'              	goto	u1930
  4316  0015' 2817'              	goto	l30001484
  4317  0016'                    u1930:
  4318  0016' 2821'              	goto	l30001486
  4319                           	
  4320  0017'                    l30001484:	
  4321                           	line	260
  4322  0017' 3001               	movlw	(01h)
  4323  0018' 0082'              	movwf	(??_AvailabeKey+0+0)
  4324  0019' 0802'              	movf	(??_AvailabeKey+0+0),w
  4325  001A' 0784'              	addwf	(AvailabeKey@i),f
  4326                           	
  4327  001B'                    l30001485:	
  4328  001B' 3017               	movlw	(017h)
  4329  001C' 0204'              	subwf	(AvailabeKey@i),w
  4330  001D' 1C03               	skipc
  4331  001E' 2820'              	goto	u1941
  4332  001F' 2821'              	goto	u1940
  4333  0020'                    u1941:
  4334  0020' 2807'              	goto	l30001481
  4335  0021'                    u1940:
  4336                           	
  4337  0021'                    l30001486:	
  4338                           	line	267
  4339                           ;main.c: 266: }
  4340                           ;main.c: 267: if(i == 0)
  4341  0021' 0884'              	movf	(AvailabeKey@i),f
  4342  0022' 1D03               	skipz
  4343  0023' 2825'              	goto	u1951
  4344  0024' 2826'              	goto	u1950
  4345  0025'                    u1951:
  4346  0025' 2828'              	goto	l30001490
  4347  0026'                    u1950:
  4348                           	
  4349  0026'                    l30001487:	
  4350                           	line	268
  4351                           ;main.c: 268: return(2);
  4352  0026' 3002               	movlw	(02h)
  4353  0027' 2831'              	goto	l93
  4354                           	
  4355  0028'                    l30001490:	
  4356                           	line	269
  4357                           ;main.c: 269: else if(i < 23)
  4358  0028' 3017               	movlw	(017h)
  4359  0029' 0204'              	subwf	(AvailabeKey@i),w
  4360  002A' 1803               	skipnc
  4361  002B' 282D'              	goto	u1961
  4362  002C' 282E'              	goto	u1960
  4363  002D'                    u1961:
  4364  002D' 2830'              	goto	l30001494
  4365  002E'                    u1960:
  4366                           	
  4367  002E'                    l30001491:	
  4368                           	line	270
  4369                           ;main.c: 270: return(1);
  4370  002E' 3001               	movlw	(01h)
  4371  002F' 2831'              	goto	l93
  4372                           	
  4373  0030'                    l30001494:	
  4374                           	line	272
  4375                           ;main.c: 271: else
  4376                           ;main.c: 272: return(0);
  4377  0030' 3000               	movlw	(0)
  4378                           	
  4379  0031'                    l93:	
  4380  0031' 0008               	return
  4381                           	opt stack 0
  4382                           GLOBAL	__end_of_AvailabeKey
  4383  0032'                    	__end_of_AvailabeKey:
  4384                           ; =============== function _AvailabeKey ends ============
  4385                           
  4386                           psect	text260,local,class=CODE,delta=2
  4387                           global __ptext260
  4388  0000'                    __ptext260:
  4389                           	line	273
  4390                           	signat	_AvailabeKey,89
  4391                           	global	_ReadiButton
  4392                           
  4393                           ; *************** function _ReadiButton *****************
  4394                           ; Defined at:
  4395                           ;		line 43 in file "D:\Amit\E-Projects\PIC Projects\CMC\iBUTTON\OneWire.c"
  4396                           ; Parameters:    Size  Location     Type
  4397                           ;		None
  4398                           ; Auto vars:     Size  Location     Type
  4399                           ;  n               1    5[BANK0 ] unsigned char 
  4400                           ;  iButtonPrese    1    4[BANK0 ] unsigned char 
  4401                           ; Return value:  Size  Location     Type
  4402                           ;                  1    wreg      unsigned char 
  4403                           ; Registers used:
  4404                           ;		wreg, fsr0l, fsr0h, status,2, status,0, pclath, cstack
  4405                           ; Tracked objects:
  4406                           ;		On entry : 0/0
  4407                           ;		On exit  : 0/0
  4408                           ;		Unchanged: 0/0
  4409                           ; Data sizes:     COMMON   BANK0   BANK1
  4410                           ;      Locals:         1       2       0
  4411                           ;      Temp:     1
  4412                           ;      Total:    3
  4413                           ; This function calls:
  4414                           ;		_InitiButton
  4415                           ;		_WriteByteToiButton
  4416                           ;		_ReadByteToiButton
  4417                           ;		_CRCCheck
  4418                           ; This function is called by:
  4419                           ;		_Configuration
  4420                           ;		_InvalidKeyIndication
  4421                           ;		_ConfigureMasterKey
  4422                           ;		_LockOperation
  4423                           ; This function uses a non-reentrant model
  4424                           ; 
  4425                           psect	text260
  4426                           	file	"D:\Amit\E-Projects\PIC Projects\CMC\iBUTTON\OneWire.c"
  4427                           	line	43
  4428                           	global	__size_of_ReadiButton
  4429  0032                     	__size_of_ReadiButton	equ	__end_of_ReadiButton-_ReadiButton
  4430                           ;OneWire.c: 42: unsigned char ReadiButton(void)
  4431                           ;OneWire.c: 43: {
  4432                           	
  4433  0000'                    _ReadiButton:	
  4434                           	opt stack 3
  4435                           ; Regs used in _ReadiButton: [wreg-fsr0h+status,2+status,0+pclath+cstack]
  4436                           	
  4437  0000'                    l30001532:	
  4438                           	
  4439  0000'                    l30001533:	
  4440                           	line	45
  4441                           ;OneWire.c: 45: iButtonPresent = InitiButton();
  4442  0000' 2000'              	fcall	_InitiButton
  4443  0001' 1283               	bcf	status, 5	;RP0=0, select bank0
  4444  0002' 1303               	bcf	status, 6	;RP1=0, select bank0
  4445  0003' 0084'              	movwf	(ReadiButton@iButtonPresent)
  4446                           	
  4447  0004'                    l30001534:	
  4448                           	line	46
  4449                           ;OneWire.c: 46: if(iButtonPresent)
  4450  0004' 0804'              	movf	(ReadiButton@iButtonPresent),w
  4451  0005' 1D03               	skipz
  4452  0006' 2808'              	goto	u2040
  4453  0007' 2830'              	goto	l30001548
  4454  0008'                    u2040:
  4455                           	
  4456  0008'                    l30001535:	
  4457                           	line	48
  4458                           ;OneWire.c: 47: {
  4459                           ;OneWire.c: 48: WriteByteToiButton(0x33);
  4460  0008' 3033               	movlw	(033h)
  4461  0009' 2000'              	fcall	_WriteByteToiButton
  4462                           	
  4463  000A'                    l30001536:	
  4464                           	line	49
  4465                           ;OneWire.c: 49: for (n=0; n<8; n++)
  4466  000A' 1003               	clrc
  4467  000B' 3000               	movlw	0
  4468  000C' 1803               	btfsc	status,0
  4469  000D' 3001               	movlw	1
  4470  000E' 1283               	bcf	status, 5	;RP0=0, select bank0
  4471  000F' 1303               	bcf	status, 6	;RP1=0, select bank0
  4472  0010' 0085'              	movwf	(ReadiButton@n)
  4473                           	
  4474  0011'                    l30001539:	
  4475                           	line	50
  4476                           ;OneWire.c: 50: iButtonKey[n]=ReadByteToiButton();
  4477  0011' 2000'              	fcall	_ReadByteToiButton
  4478  0012' 0081'              	movwf	(??_ReadiButton+0+0)
  4479  0013' 1283               	bcf	status, 5	;RP0=0, select bank0
  4480  0014' 1303               	bcf	status, 6	;RP1=0, select bank0
  4481  0015' 0805'              	movf	(ReadiButton@n),w
  4482  0016' 3E00'              	addlw	(_iButtonKey)&0ffh
  4483  0017' 0084               	movwf	fsr0
  4484  0018' 0801'              	movf	(??_ReadiButton+0+0),w
  4485  0019' 1383               	bcf	status, 7	;select IRP bank0
  4486  001A' 0080               	movwf	indf
  4487                           	
  4488  001B'                    l30001540:	
  4489                           	line	49
  4490  001B' 3001               	movlw	(01h)
  4491  001C' 0081'              	movwf	(??_ReadiButton+0+0)
  4492  001D' 0801'              	movf	(??_ReadiButton+0+0),w
  4493  001E' 0785'              	addwf	(ReadiButton@n),f
  4494                           	
  4495  001F'                    l30001541:	
  4496  001F' 3008               	movlw	(08h)
  4497  0020' 0205'              	subwf	(ReadiButton@n),w
  4498  0021' 1C03               	skipc
  4499  0022' 2824'              	goto	u2051
  4500  0023' 2825'              	goto	u2050
  4501  0024'                    u2051:
  4502  0024' 2811'              	goto	l30001539
  4503  0025'                    u2050:
  4504                           	
  4505  0025'                    l30001542:	
  4506                           	line	52
  4507                           ;OneWire.c: 52: if(CRCCheck(iButtonKey))
  4508  0025' 3000'              	movlw	((_iButtonKey))&0ffh
  4509  0026' 2000'              	fcall	_CRCCheck
  4510  0027' 3A00               	xorlw	0
  4511  0028' 1903               	skipnz
  4512  0029' 282B'              	goto	u2061
  4513  002A' 282C'              	goto	u2060
  4514  002B'                    u2061:
  4515  002B' 282E'              	goto	l30001546
  4516  002C'                    u2060:
  4517                           	
  4518  002C'                    l30001543:	
  4519                           	line	53
  4520                           ;OneWire.c: 53: return(1);
  4521  002C' 3001               	movlw	(01h)
  4522  002D' 2831'              	goto	l204
  4523                           	
  4524  002E'                    l30001546:	
  4525                           	line	55
  4526                           ;OneWire.c: 54: else
  4527                           ;OneWire.c: 55: return(0);
  4528  002E' 3000               	movlw	(0)
  4529  002F' 2831'              	goto	l204
  4530                           	
  4531  0030'                    l30001548:	
  4532                           	line	57
  4533                           ;OneWire.c: 56: }
  4534                           ;OneWire.c: 57: return(iButtonPresent);
  4535  0030' 0804'              	movf	(ReadiButton@iButtonPresent),w
  4536                           	
  4537  0031'                    l204:	
  4538  0031' 0008               	return
  4539                           	opt stack 0
  4540                           GLOBAL	__end_of_ReadiButton
  4541  0032'                    	__end_of_ReadiButton:
  4542                           ; =============== function _ReadiButton ends ============
  4543                           
  4544                           psect	text261,local,class=CODE,delta=2
  4545                           global __ptext261
  4546  0000'                    __ptext261:
  4547                           	line	58
  4548                           	signat	_ReadiButton,89
  4549                           	global	_ClearKey
  4550                           
  4551                           ; *************** function _ClearKey *****************
  4552                           ; Defined at:
  4553                           ;		line 293 in file "D:\Amit\E-Projects\PIC Projects\CMC\iBUTTON\main.c"
  4554                           ; Parameters:    Size  Location     Type
  4555                           ;  KeyNum          1    wreg     unsigned char 
  4556                           ; Auto vars:     Size  Location     Type
  4557                           ;  KeyNum          1    7[BANK0 ] unsigned char 
  4558                           ;  i               1    8[BANK0 ] unsigned char 
  4559                           ; Return value:  Size  Location     Type
  4560                           ;		None               void
  4561                           ; Registers used:
  4562                           ;		wreg, fsr0l, fsr0h, status,2, status,0, pclath, cstack
  4563                           ; Tracked objects:
  4564                           ;		On entry : 0/0
  4565                           ;		On exit  : 0/0
  4566                           ;		Unchanged: 0/0
  4567                           ; Data sizes:     COMMON   BANK0   BANK1
  4568                           ;      Locals:         1       2       0
  4569                           ;      Temp:     1
  4570                           ;      Total:    3
  4571                           ; This function calls:
  4572                           ;		_EEPROMWriteKeyByte
  4573                           ; This function is called by:
  4574                           ;		_Configuration
  4575                           ;		_main
  4576                           ; This function uses a non-reentrant model
  4577                           ; 
  4578                           psect	text261
  4579                           	file	"D:\Amit\E-Projects\PIC Projects\CMC\iBUTTON\main.c"
  4580                           	line	293
  4581                           	global	__size_of_ClearKey
  4582  001D                     	__size_of_ClearKey	equ	__end_of_ClearKey-_ClearKey
  4583                           ;main.c: 292: void ClearKey(unsigned char KeyNum)
  4584                           ;main.c: 293: {
  4585                           	
  4586  0000'                    _ClearKey:	
  4587                           	opt stack 3
  4588                           ; Regs used in _ClearKey: [wreg-fsr0h+status,2+status,0+pclath+cstack]
  4589                           ;ClearKey@KeyNum stored from wreg
  4590                           	line	295
  4591  0000' 1283               	bcf	status, 5	;RP0=0, select bank0
  4592  0001' 1303               	bcf	status, 6	;RP1=0, select bank0
  4593  0002' 0087'              	movwf	(ClearKey@KeyNum)
  4594                           	
  4595  0003'                    l30001619:	
  4596                           ;main.c: 294: unsigned char i;
  4597                           ;main.c: 295: for(i=0;i<8;i++)
  4598  0003' 1003               	clrc
  4599  0004' 3000               	movlw	0
  4600  0005' 1803               	btfsc	status,0
  4601  0006' 3001               	movlw	1
  4602  0007' 0088'              	movwf	(ClearKey@i)
  4603                           	
  4604  0008'                    l30001622:	
  4605                           	line	297
  4606                           ;main.c: 296: {
  4607                           ;main.c: 297: iButtonKey[i]=0x55;
  4608  0008' 3055               	movlw	(055h)
  4609  0009' 0082'              	movwf	(??_ClearKey+0+0)
  4610  000A' 0808'              	movf	(ClearKey@i),w
  4611  000B' 3E00'              	addlw	(_iButtonKey)&0ffh
  4612  000C' 0084               	movwf	fsr0
  4613  000D' 0802'              	movf	(??_ClearKey+0+0),w
  4614  000E' 1383               	bcf	status, 7	;select IRP bank0
  4615  000F' 0080               	movwf	indf
  4616                           	
  4617  0010'                    l30001623:	
  4618                           	line	295
  4619  0010' 3001               	movlw	(01h)
  4620  0011' 0082'              	movwf	(??_ClearKey+0+0)
  4621  0012' 0802'              	movf	(??_ClearKey+0+0),w
  4622  0013' 0788'              	addwf	(ClearKey@i),f
  4623                           	
  4624  0014'                    l30001624:	
  4625  0014' 3008               	movlw	(08h)
  4626  0015' 0208'              	subwf	(ClearKey@i),w
  4627  0016' 1C03               	skipc
  4628  0017' 2819'              	goto	u2191
  4629  0018' 281A'              	goto	u2190
  4630  0019'                    u2191:
  4631  0019' 2808'              	goto	l30001622
  4632  001A'                    u2190:
  4633                           	
  4634  001A'                    l30001625:	
  4635                           	line	299
  4636                           ;main.c: 298: }
  4637                           ;main.c: 299: EEPROMWriteKeyByte(KeyNum);
  4638  001A' 0807'              	movf	(ClearKey@KeyNum),w
  4639  001B' 2000'              	fcall	_EEPROMWriteKeyByte
  4640                           	
  4641  001C'                    l110:	
  4642  001C' 0008               	return
  4643                           	opt stack 0
  4644                           GLOBAL	__end_of_ClearKey
  4645  001D'                    	__end_of_ClearKey:
  4646                           ; =============== function _ClearKey ends ============
  4647                           
  4648                           psect	text262,local,class=CODE,delta=2
  4649                           global __ptext262
  4650  0000'                    __ptext262:
  4651                           	line	300
  4652                           	signat	_ClearKey,4216
  4653                           	global	_strcmp
  4654                           
  4655                           ; *************** function _strcmp *****************
  4656                           ; Defined at:
  4657                           ;		line 244 in file "D:\Amit\E-Projects\PIC Projects\CMC\iBUTTON\main.c"
  4658                           ; Parameters:    Size  Location     Type
  4659                           ;  x               1    wreg     PTR unsigned char 
  4660                           ;		 -> iButtonKey(9), 
  4661                           ;  y               1    0[BANK0 ] PTR unsigned char 
  4662                           ;		 -> EEPROMKey(9), 
  4663                           ; Auto vars:     Size  Location     Type
  4664                           ;  x               1    1[COMMON] PTR unsigned char 
  4665                           ;		 -> iButtonKey(9), 
  4666                           ;  i               1    2[COMMON] unsigned char 
  4667                           ; Return value:  Size  Location     Type
  4668                           ;                  1    wreg      unsigned char 
  4669                           ; Registers used:
  4670                           ;		wreg, fsr0l, fsr0h, status,2, status,0
  4671                           ; Tracked objects:
  4672                           ;		On entry : 0/0
  4673                           ;		On exit  : 0/0
  4674                           ;		Unchanged: 0/0
  4675                           ; Data sizes:     COMMON   BANK0   BANK1
  4676                           ;      Locals:         3       1       0
  4677                           ;      Temp:     1
  4678                           ;      Total:    4
  4679                           ; This function calls:
  4680                           ;		Nothing
  4681                           ; This function is called by:
  4682                           ;		_AvailabeKey
  4683                           ;		_Configuration
  4684                           ; This function uses a non-reentrant model
  4685                           ; 
  4686                           psect	text262
  4687                           	file	"D:\Amit\E-Projects\PIC Projects\CMC\iBUTTON\main.c"
  4688                           	line	244
  4689                           	global	__size_of_strcmp
  4690  002E                     	__size_of_strcmp	equ	__end_of_strcmp-_strcmp
  4691                           ;main.c: 243: unsigned char strcmp(unsigned char* x, unsigned char* y)
  4692                           ;main.c: 244: {
  4693                           	
  4694  0000'                    _strcmp:	
  4695                           	opt stack 2
  4696                           ; Regs used in _strcmp: [wreg-fsr0h+status,2+status,0]
  4697                           ;strcmp@x stored from wreg
  4698                           	line	246
  4699  0000' 0081'              	movwf	(strcmp@x)
  4700                           	
  4701  0001'                    l30001586:	
  4702                           ;main.c: 245: unsigned char i;
  4703                           ;main.c: 246: for(i=0;i<8;i++)
  4704  0001' 1003               	clrc
  4705  0002' 3000               	movlw	0
  4706  0003' 1803               	btfsc	status,0
  4707  0004' 3001               	movlw	1
  4708  0005' 0082'              	movwf	(strcmp@i)
  4709                           	
  4710  0006'                    l30001589:	
  4711                           	line	248
  4712                           ;main.c: 247: {
  4713                           ;main.c: 248: if(*x++ != *y++)
  4714  0006' 1283               	bcf	status, 5	;RP0=0, select bank0
  4715  0007' 1303               	bcf	status, 6	;RP1=0, select bank0
  4716  0008' 0800'              	movf	(strcmp@y),w
  4717  0009' 0084               	movwf	fsr0
  4718  000A' 3001               	movlw	01h
  4719  000B' 0780'              	addwf	(strcmp@y),f
  4720  000C' 1383               	bcf	status, 7	;select IRP bank0
  4721  000D' 0800               	movf	indf,w
  4722  000E' 0080'              	movwf	(??_strcmp+0+0)
  4723  000F' 0801'              	movf	(strcmp@x),w
  4724  0010' 0084               	movwf	fsr0
  4725  0011' 3001               	movlw	01h
  4726  0012' 0781'              	addwf	(strcmp@x),f
  4727  0013' 0800               	movf	indf,w
  4728  0014' 0600'              	xorwf	(??_strcmp+0+0),w
  4729  0015' 1903               	skipnz
  4730  0016' 2818'              	goto	u2121
  4731  0017' 2819'              	goto	u2120
  4732  0018'                    u2121:
  4733  0018' 281A'              	goto	l30001591
  4734  0019'                    u2120:
  4735  0019' 2824'              	goto	l30001593
  4736                           	
  4737  001A'                    l30001591:	
  4738                           	line	246
  4739  001A' 3001               	movlw	(01h)
  4740  001B' 0080'              	movwf	(??_strcmp+0+0)
  4741  001C' 0800'              	movf	(??_strcmp+0+0),w
  4742  001D' 0782'              	addwf	(strcmp@i),f
  4743                           	
  4744  001E'                    l30001592:	
  4745  001E' 3008               	movlw	(08h)
  4746  001F' 0202'              	subwf	(strcmp@i),w
  4747  0020' 1C03               	skipc
  4748  0021' 2823'              	goto	u2131
  4749  0022' 2824'              	goto	u2130
  4750  0023'                    u2131:
  4751  0023' 2806'              	goto	l30001589
  4752  0024'                    u2130:
  4753                           	
  4754  0024'                    l30001593:	
  4755                           	line	251
  4756                           ;main.c: 250: }
  4757                           ;main.c: 251: if(i==8)
  4758  0024' 0802'              	movf	(strcmp@i),w
  4759  0025' 3A08               	xorlw	08h
  4760  0026' 1D03               	skipz
  4761  0027' 2829'              	goto	u2141
  4762  0028' 282A'              	goto	u2140
  4763  0029'                    u2141:
  4764  0029' 282C'              	goto	l30001597
  4765  002A'                    u2140:
  4766                           	
  4767  002A'                    l30001594:	
  4768                           	line	252
  4769                           ;main.c: 252: return(1);
  4770  002A' 3001               	movlw	(01h)
  4771  002B' 282D'              	goto	l86
  4772                           	
  4773  002C'                    l30001597:	
  4774                           	line	254
  4775                           ;main.c: 253: else
  4776                           ;main.c: 254: return(0);
  4777  002C' 3000               	movlw	(0)
  4778                           	
  4779  002D'                    l86:	
  4780  002D' 0008               	return
  4781                           	opt stack 0
  4782                           GLOBAL	__end_of_strcmp
  4783  002E'                    	__end_of_strcmp:
  4784                           ; =============== function _strcmp ends ============
  4785                           
  4786                           psect	text263,local,class=CODE,delta=2
  4787                           global __ptext263
  4788  0000'                    __ptext263:
  4789                           	line	255
  4790                           	signat	_strcmp,8313
  4791                           	global	_EEPROMWriteKeyByte
  4792                           
  4793                           ; *************** function _EEPROMWriteKeyByte *****************
  4794                           ; Defined at:
  4795                           ;		line 218 in file "D:\Amit\E-Projects\PIC Projects\CMC\iBUTTON\main.c"
  4796                           ; Parameters:    Size  Location     Type
  4797                           ;  WriteAddress    1    wreg     unsigned char 
  4798                           ; Auto vars:     Size  Location     Type
  4799                           ;  WriteAddress    1    6[BANK0 ] unsigned char 
  4800                           ; Return value:  Size  Location     Type
  4801                           ;		None               void
  4802                           ; Registers used:
  4803                           ;		wreg, status,2, status,0, pclath, cstack
  4804                           ; Tracked objects:
  4805                           ;		On entry : 0/0
  4806                           ;		On exit  : 0/0
  4807                           ;		Unchanged: 0/0
  4808                           ; Data sizes:     COMMON   BANK0   BANK1
  4809                           ;      Locals:         2       1       0
  4810                           ;      Temp:     2
  4811                           ;      Total:    3
  4812                           ; This function calls:
  4813                           ;		_WriteEEPROM
  4814                           ;		_DelayMs
  4815                           ; This function is called by:
  4816                           ;		_ClearAllKeys
  4817                           ;		_ClearKey
  4818                           ; This function uses a non-reentrant model
  4819                           ; 
  4820                           psect	text263
  4821                           	file	"D:\Amit\E-Projects\PIC Projects\CMC\iBUTTON\main.c"
  4822                           	line	218
  4823                           	global	__size_of_EEPROMWriteKeyByte
  4824  0030                     	__size_of_EEPROMWriteKeyByte	equ	__end_of_EEPROMWriteKeyByte-_EEPROMWriteKeyByte
  4825                           ;main.c: 217: void EEPROMWriteKeyByte(unsigned char WriteAddress)
  4826                           ;main.c: 218: {
  4827                           	
  4828  0000'                    _EEPROMWriteKeyByte:	
  4829                           	opt stack 2
  4830                           ; Regs used in _EEPROMWriteKeyByte: [wreg+status,2+status,0+pclath+cstack]
  4831                           ;EEPROMWriteKeyByte@WriteAddress stored from wreg
  4832  0000' 1283               	bcf	status, 5	;RP0=0, select bank0
  4833  0001' 1303               	bcf	status, 6	;RP1=0, select bank0
  4834  0002' 0086'              	movwf	(EEPROMWriteKeyByte@WriteAddress)
  4835                           	
  4836  0003'                    l72:	
  4837                           	
  4838  0003'                    l30001599:	
  4839                           	line	219
  4840  0003' 307E               	movlw	(07Eh)
  4841  0004' 0080'              	movwf	(??_EEPROMWriteKeyByte+0+0)
  4842  0005' 0800'              	movf	(??_EEPROMWriteKeyByte+0+0),w
  4843  0006' 058B               	andwf	(11),f	;volatile
  4844                           	
  4845  0007'                    l71:	
  4846                           	line	220
  4847                           ;main.c: 220: WriteAddress = WriteAddress * 8;
  4848  0007' 0806'              	movf	(EEPROMWriteKeyByte@WriteAddress),w
  4849  0008' 0080'              	movwf	(??_EEPROMWriteKeyByte+0+0)
  4850  0009' 3002               	movlw	(03h)-1
  4851  000A'                    u2155:
  4852  000A' 1003               	clrc
  4853  000B' 0D80'              	rlf	(??_EEPROMWriteKeyByte+0+0),f
  4854  000C' 3EFF               	addlw	-1
  4855  000D' 1D03               	skipz
  4856  000E' 280A'              	goto	u2155
  4857  000F' 1003               	clrc
  4858  0010' 0D00'              	rlf	(??_EEPROMWriteKeyByte+0+0),w
  4859  0011' 0086'              	movwf	(EEPROMWriteKeyByte@WriteAddress)
  4860                           	
  4861  0012'                    l30001600:	
  4862                           	line	221
  4863                           ;main.c: 221: DataEEAddr = WriteAddress++;
  4864  0012' 0806'              	movf	(EEPROMWriteKeyByte@WriteAddress),w
  4865  0013' 0080'              	movwf	(??_EEPROMWriteKeyByte+0+0)
  4866  0014' 0181'              	clrf	(??_EEPROMWriteKeyByte+0+0+1)
  4867  0015' 0800'              	movf	0+(??_EEPROMWriteKeyByte+0+0),w
  4868  0016' 0080'              	movwf	(_DataEEAddr)
  4869  0017' 0801'              	movf	1+(??_EEPROMWriteKeyByte+0+0),w
  4870  0018' 0081'              	movwf	(_DataEEAddr+1)
  4871                           	
  4872  0019'                    l30001601:	
  4873  0019' 3001               	movlw	(01h)
  4874  001A' 0080'              	movwf	(??_EEPROMWriteKeyByte+0+0)
  4875  001B' 0800'              	movf	(??_EEPROMWriteKeyByte+0+0),w
  4876  001C' 0786'              	addwf	(EEPROMWriteKeyByte@WriteAddress),f
  4877                           	line	222
  4878                           ;main.c: 222: DataEEData = iButtonKey[0];
  4879  001D' 080E'              	movf	(_iButtonKey),w
  4880  001E' 0080'              	movwf	(??_EEPROMWriteKeyByte+0+0)
  4881  001F' 0181'              	clrf	(??_EEPROMWriteKeyByte+0+0+1)
  4882  0020' 0800'              	movf	0+(??_EEPROMWriteKeyByte+0+0),w
  4883  0021' 0082'              	movwf	(_DataEEData)
  4884  0022' 0801'              	movf	1+(??_EEPROMWriteKeyByte+0+0),w
  4885  0023' 0083'              	movwf	(_DataEEData+1)
  4886                           	
  4887  0024'                    l30001602:	
  4888                           	line	223
  4889                           ;main.c: 223: WriteEEPROM();
  4890  0024' 2000'              	fcall	_WriteEEPROM
  4891                           	
  4892  0025'                    l30001603:	
  4893                           	line	224
  4894                           ;main.c: 224: DelayMs(10);
  4895  0025' 300A               	movlw	low(0Ah)
  4896  0026' 1283               	bcf	status, 5	;RP0=0, select bank0
  4897  0027' 1303               	bcf	status, 6	;RP1=0, select bank0
  4898  0028' 0084'              	movwf	(?_DelayMs)
  4899  0029' 3000               	movlw	high(0Ah)
  4900  002A' 0085'              	movwf	((?_DelayMs))+1
  4901  002B' 2000'              	fcall	_DelayMs
  4902                           	
  4903  002C'                    l30001604:	
  4904                           	line	225
  4905  002C' 1283               	bcf	status, 5	;RP0=0, select bank0
  4906  002D' 1303               	bcf	status, 6	;RP1=0, select bank0
  4907  002E' 178B               	bsf	(11)+(7/8),(7)&7	;volatile
  4908                           	
  4909  002F'                    l69:	
  4910  002F' 0008               	return
  4911                           	opt stack 0
  4912                           GLOBAL	__end_of_EEPROMWriteKeyByte
  4913  0030'                    	__end_of_EEPROMWriteKeyByte:
  4914                           ; =============== function _EEPROMWriteKeyByte ends ============
  4915                           
  4916                           psect	text264,local,class=CODE,delta=2
  4917                           global __ptext264
  4918  0000'                    __ptext264:
  4919                           	line	226
  4920                           	signat	_EEPROMWriteKeyByte,4216
  4921                           	global	_WriteByteToiButton
  4922                           
  4923                           ; *************** function _WriteByteToiButton *****************
  4924                           ; Defined at:
  4925                           ;		line 119 in file "D:\Amit\E-Projects\PIC Projects\CMC\iBUTTON\OneWire.c"
  4926                           ; Parameters:    Size  Location     Type
  4927                           ;  d               1    wreg     unsigned char 
  4928                           ; Auto vars:     Size  Location     Type
  4929                           ;  d               1    0[BANK0 ] unsigned char 
  4930                           ;  n               1    1[BANK0 ] unsigned char 
  4931                           ; Return value:  Size  Location     Type
  4932                           ;		None               void
  4933                           ; Registers used:
  4934                           ;		wreg, status,2, status,0, pclath, cstack
  4935                           ; Tracked objects:
  4936                           ;		On entry : 0/0
  4937                           ;		On exit  : 0/0
  4938                           ;		Unchanged: 0/0
  4939                           ; Data sizes:     COMMON   BANK0   BANK1
  4940                           ;      Locals:         1       2       0
  4941                           ;      Temp:     1
  4942                           ;      Total:    3
  4943                           ; This function calls:
  4944                           ;		_delay_10us
  4945                           ; This function is called by:
  4946                           ;		_ReadiButton
  4947                           ; This function uses a non-reentrant model
  4948                           ; 
  4949                           psect	text264
  4950                           	file	"D:\Amit\E-Projects\PIC Projects\CMC\iBUTTON\OneWire.c"
  4951                           	line	119
  4952                           	global	__size_of_WriteByteToiButton
  4953  0030                     	__size_of_WriteByteToiButton	equ	__end_of_WriteByteToiButton-_WriteByteToiButton
  4954                           ;OneWire.c: 118: void WriteByteToiButton(unsigned char d)
  4955                           ;OneWire.c: 119: {
  4956                           	
  4957  0000'                    _WriteByteToiButton:	
  4958                           	opt stack 2
  4959                           ; Regs used in _WriteByteToiButton: [wreg+status,2+status,0+pclath+cstack]
  4960                           ;WriteByteToiButton@d stored from wreg
  4961                           	line	121
  4962  0000' 1283               	bcf	status, 5	;RP0=0, select bank0
  4963  0001' 1303               	bcf	status, 6	;RP1=0, select bank0
  4964  0002' 0080'              	movwf	(WriteByteToiButton@d)
  4965                           	
  4966  0003'                    l30001574:	
  4967                           ;OneWire.c: 120: unsigned char n;
  4968                           ;OneWire.c: 121: for(n=0; n<8; n++)
  4969  0003' 1003               	clrc
  4970  0004' 3000               	movlw	0
  4971  0005' 1803               	btfsc	status,0
  4972  0006' 3001               	movlw	1
  4973  0007' 0081'              	movwf	(WriteByteToiButton@n)
  4974                           	
  4975  0008'                    l216:	
  4976                           	line	123
  4977                           ;OneWire.c: 122: {
  4978                           ;OneWire.c: 123: TRISA2=0x00;
  4979  0008' 1683               	bsf	status, 5	;RP0=1, select bank1
  4980  0009' 1303               	bcf	status, 6	;RP1=0, select bank1
  4981  000A' 1105               	bcf	(1066/8)^080h,(1066)&7
  4982                           	line	124
  4983                           ;OneWire.c: 124: RA2=0x00;
  4984  000B' 1283               	bcf	status, 5	;RP0=0, select bank0
  4985  000C' 1303               	bcf	status, 6	;RP1=0, select bank0
  4986  000D' 1105               	bcf	(42/8),(42)&7
  4987                           	
  4988  000E'                    l30001577:	
  4989                           	line	125
  4990                           ;OneWire.c: 125: t=6;;
  4991  000E' 3006               	movlw	(06h)
  4992  000F' 0086'              	movwf	(_t)
  4993                           	
  4994  0010'                    l30001578:	
  4995                           	line	126
  4996                           ;OneWire.c: 126: if (d&0x01)
  4997  0010' 1C00'              	btfss	(WriteByteToiButton@d),(0)&7
  4998  0011' 2813'              	goto	u2101
  4999  0012' 2814'              	goto	u2100
  5000  0013'                    u2101:
  5001  0013' 281A'              	goto	l30001581
  5002  0014'                    u2100:
  5003                           	
  5004  0014'                    l30001579:	
  5005                           	line	128
  5006                           # 128 "D:\Amit\E-Projects\PIC Projects\CMC\iBUTTON\OneWire.c"
  5007  0014' 0000               nop ;#
  5008                           psect	text264
  5009                           	line	129
  5010                           ;OneWire.c: 129: TRISA2=0x01;
  5011  0015' 1683               	bsf	status, 5	;RP0=1, select bank1
  5012  0016' 1303               	bcf	status, 6	;RP1=0, select bank1
  5013  0017' 1505               	bsf	(1066/8)^080h,(1066)&7
  5014                           	
  5015  0018'                    l30001580:	
  5016                           	line	130
  5017                           ;OneWire.c: 130: delay_10us();
  5018  0018' 2000'              	fcall	_delay_10us
  5019  0019' 281E'              	goto	l30001583
  5020                           	
  5021  001A'                    l30001581:	
  5022                           	line	134
  5023                           ;OneWire.c: 132: else
  5024                           ;OneWire.c: 133: {
  5025                           ;OneWire.c: 134: delay_10us();
  5026  001A' 2000'              	fcall	_delay_10us
  5027                           	
  5028  001B'                    l30001582:	
  5029                           	line	135
  5030                           ;OneWire.c: 135: TRISA2=0x01;
  5031  001B' 1683               	bsf	status, 5	;RP0=1, select bank1
  5032  001C' 1303               	bcf	status, 6	;RP1=0, select bank1
  5033  001D' 1505               	bsf	(1066/8)^080h,(1066)&7
  5034                           	
  5035  001E'                    l30001583:	
  5036                           	line	137
  5037                           ;OneWire.c: 136: }
  5038                           ;OneWire.c: 137: d=d>>1;
  5039  001E' 1283               	bcf	status, 5	;RP0=0, select bank0
  5040  001F' 1303               	bcf	status, 6	;RP1=0, select bank0
  5041  0020' 0800'              	movf	(WriteByteToiButton@d),w
  5042  0021' 0080'              	movwf	(??_WriteByteToiButton+0+0)
  5043  0022' 1003               	clrc
  5044  0023' 0C00'              	rrf	(??_WriteByteToiButton+0+0),w
  5045  0024' 0080'              	movwf	(WriteByteToiButton@d)
  5046                           	
  5047  0025'                    l30001584:	
  5048                           	line	121
  5049  0025' 3001               	movlw	(01h)
  5050  0026' 0080'              	movwf	(??_WriteByteToiButton+0+0)
  5051  0027' 0800'              	movf	(??_WriteByteToiButton+0+0),w
  5052  0028' 0781'              	addwf	(WriteByteToiButton@n),f
  5053                           	
  5054  0029'                    l30001585:	
  5055  0029' 3008               	movlw	(08h)
  5056  002A' 0201'              	subwf	(WriteByteToiButton@n),w
  5057  002B' 1C03               	skipc
  5058  002C' 282E'              	goto	u2111
  5059  002D' 282F'              	goto	u2110
  5060  002E'                    u2111:
  5061  002E' 2808'              	goto	l216
  5062  002F'                    u2110:
  5063                           	
  5064  002F'                    l215:	
  5065  002F' 0008               	return
  5066                           	opt stack 0
  5067                           GLOBAL	__end_of_WriteByteToiButton
  5068  0030'                    	__end_of_WriteByteToiButton:
  5069                           ; =============== function _WriteByteToiButton ends ============
  5070                           
  5071                           psect	text265,local,class=CODE,delta=2
  5072                           global __ptext265
  5073  0000'                    __ptext265:
  5074                           	line	139
  5075                           	signat	_WriteByteToiButton,4216
  5076                           	global	_CRCCheck
  5077                           
  5078                           ; *************** function _CRCCheck *****************
  5079                           ; Defined at:
  5080                           ;		line 19 in file "D:\Amit\E-Projects\PIC Projects\CMC\iBUTTON\OneWire.c"
  5081                           ; Parameters:    Size  Location     Type
  5082                           ;  KeyPointer      1    wreg     PTR unsigned char 
  5083                           ;		 -> EEPROMKey(9), iButtonKey(9), 
  5084                           ; Auto vars:     Size  Location     Type
  5085                           ;  KeyPointer      1    3[BANK0 ] PTR unsigned char 
  5086                           ;		 -> EEPROMKey(9), iButtonKey(9), 
  5087                           ;  LenForCrc       1    2[BANK0 ] unsigned char 
  5088                           ;  CRC             1    1[BANK0 ] unsigned char 
  5089                           ;  KeyAllByteZe    1    0[BANK0 ] unsigned char 
  5090                           ; Return value:  Size  Location     Type
  5091                           ;                  1    wreg      unsigned char 
  5092                           ; Registers used:
  5093                           ;		wreg, fsr0l, fsr0h, status,2, status,0, pclath
  5094                           ; Tracked objects:
  5095                           ;		On entry : 0/0
  5096                           ;		On exit  : 0/0
  5097                           ;		Unchanged: 0/0
  5098                           ; Data sizes:     COMMON   BANK0   BANK1
  5099                           ;      Locals:         1       4       0
  5100                           ;      Temp:     1
  5101                           ;      Total:    5
  5102                           ; This function calls:
  5103                           ;		Nothing
  5104                           ; This function is called by:
  5105                           ;		_Configuration
  5106                           ;		_ConfigureMasterKey
  5107                           ;		_ReadiButton
  5108                           ; This function uses a non-reentrant model
  5109                           ; 
  5110                           psect	text265
  5111                           	file	"D:\Amit\E-Projects\PIC Projects\CMC\iBUTTON\OneWire.c"
  5112                           	line	19
  5113                           	global	__size_of_CRCCheck
  5114  0043                     	__size_of_CRCCheck	equ	__end_of_CRCCheck-_CRCCheck
  5115                           ;OneWire.c: 18: unsigned char CRCCheck(unsigned char* KeyPointer)
  5116                           ;OneWire.c: 19: {
  5117                           	
  5118  0000'                    _CRCCheck:	
  5119                           	opt stack 2
  5120                           ; Regs used in _CRCCheck: [wreg-fsr0h+status,2+status,0+pclath]
  5121                           ;CRCCheck@KeyPointer stored from wreg
  5122                           	line	21
  5123  0000' 1283               	bcf	status, 5	;RP0=0, select bank0
  5124  0001' 1303               	bcf	status, 6	;RP1=0, select bank0
  5125  0002' 0083'              	movwf	(CRCCheck@KeyPointer)
  5126                           	
  5127  0003'                    l30001684:	
  5128                           ;OneWire.c: 20: unsigned char LenForCrc,CRC,KeyAllByteZero;
  5129                           ;OneWire.c: 21: CRC=0x00;
  5130  0003' 1003               	clrc
  5131  0004' 3000               	movlw	0
  5132  0005' 1803               	btfsc	status,0
  5133  0006' 3001               	movlw	1
  5134  0007' 0081'              	movwf	(CRCCheck@CRC)
  5135                           	line	22
  5136                           ;OneWire.c: 22: KeyAllByteZero=0x00;
  5137  0008' 1003               	clrc
  5138  0009' 3000               	movlw	0
  5139  000A' 1803               	btfsc	status,0
  5140  000B' 3001               	movlw	1
  5141  000C' 0080'              	movwf	(CRCCheck@KeyAllByteZero)
  5142                           	line	23
  5143                           ;OneWire.c: 23: for(LenForCrc=0;LenForCrc<7;LenForCrc++)
  5144  000D' 1003               	clrc
  5145  000E' 3000               	movlw	0
  5146  000F' 1803               	btfsc	status,0
  5147  0010' 3001               	movlw	1
  5148  0011' 0082'              	movwf	(CRCCheck@LenForCrc)
  5149                           	
  5150  0012'                    l30001687:	
  5151                           	line	25
  5152                           ;OneWire.c: 24: {
  5153                           ;OneWire.c: 25: KeyAllByteZero |= *KeyPointer;
  5154  0012' 0803'              	movf	(CRCCheck@KeyPointer),w
  5155  0013' 0084               	movwf	fsr0
  5156  0014' 1383               	bcf	status, 7	;select IRP bank0
  5157  0015' 0800               	movf	indf,w
  5158  0016' 0080'              	movwf	(??_CRCCheck+0+0)
  5159  0017' 0800'              	movf	(??_CRCCheck+0+0),w
  5160  0018' 0480'              	iorwf	(CRCCheck@KeyAllByteZero),f
  5161                           	
  5162  0019'                    l30001688:	
  5163                           	line	26
  5164                           ;OneWire.c: 26: CRC = CRCValue[CRC^(*KeyPointer++)];
  5165  0019' 0803'              	movf	(CRCCheck@KeyPointer),w
  5166  001A' 0084               	movwf	fsr0
  5167  001B' 0800               	movf	indf,w
  5168  001C' 0601'              	xorwf	(CRCCheck@CRC),w
  5169  001D' 3E00'              	addlw	low ((_CRCValue))
  5170  001E' 0084               	movwf	fsr0
  5171  001F' 3000'              	movlw	high ((_CRCValue))
  5172  0020' 1803               	skipnc
  5173  0021' 3E01               	addlw	1
  5174                           	FNCALL _CRCCheck,stringtab
  5175  0022' 2000'              	fcall	stringtab
  5176  0023' 0081'              	movwf	(CRCCheck@CRC)
  5177                           	
  5178  0024'                    l30001689:	
  5179  0024' 3001               	movlw	(01h)
  5180  0025' 0080'              	movwf	(??_CRCCheck+0+0)
  5181  0026' 0800'              	movf	(??_CRCCheck+0+0),w
  5182  0027' 0783'              	addwf	(CRCCheck@KeyPointer),f
  5183                           	
  5184  0028'                    l30001690:	
  5185                           	line	23
  5186  0028' 3001               	movlw	(01h)
  5187  0029' 0080'              	movwf	(??_CRCCheck+0+0)
  5188  002A' 0800'              	movf	(??_CRCCheck+0+0),w
  5189  002B' 0782'              	addwf	(CRCCheck@LenForCrc),f
  5190                           	
  5191  002C'                    l30001691:	
  5192  002C' 3007               	movlw	(07h)
  5193  002D' 0202'              	subwf	(CRCCheck@LenForCrc),w
  5194  002E' 1C03               	skipc
  5195  002F' 2831'              	goto	u2341
  5196  0030' 2832'              	goto	u2340
  5197  0031'                    u2341:
  5198  0031' 2812'              	goto	l30001687
  5199  0032'                    u2340:
  5200                           	
  5201  0032'                    l30001692:	
  5202                           	line	28
  5203                           ;OneWire.c: 27: }
  5204                           ;OneWire.c: 28: if(*KeyPointer == CRC && KeyAllByteZero != 0)
  5205  0032' 0803'              	movf	(CRCCheck@KeyPointer),w
  5206  0033' 0084               	movwf	fsr0
  5207  0034' 1383               	bcf	status, 7	;select IRP bank0
  5208  0035' 0800               	movf	indf,w
  5209  0036' 0601'              	xorwf	(CRCCheck@CRC),w
  5210  0037' 1D03               	skipz
  5211  0038' 283A'              	goto	u2351
  5212  0039' 283B'              	goto	u2350
  5213  003A'                    u2351:
  5214  003A' 2841'              	goto	l30001697
  5215  003B'                    u2350:
  5216                           	
  5217  003B'                    l30001693:	
  5218  003B' 0800'              	movf	(CRCCheck@KeyAllByteZero),w
  5219  003C' 1D03               	skipz
  5220  003D' 283F'              	goto	u2360
  5221  003E' 2841'              	goto	l30001697
  5222  003F'                    u2360:
  5223                           	
  5224  003F'                    l30001694:	
  5225                           	line	29
  5226                           ;OneWire.c: 29: return(1);
  5227  003F' 3001               	movlw	(01h)
  5228  0040' 2842'              	goto	l198
  5229                           	
  5230  0041'                    l30001697:	
  5231                           	line	31
  5232                           ;OneWire.c: 30: else
  5233                           ;OneWire.c: 31: return(0);
  5234  0041' 3000               	movlw	(0)
  5235                           	
  5236  0042'                    l198:	
  5237  0042' 0008               	return
  5238                           	opt stack 0
  5239                           GLOBAL	__end_of_CRCCheck
  5240  0043'                    	__end_of_CRCCheck:
  5241                           ; =============== function _CRCCheck ends ============
  5242                           
  5243                           psect	text266,local,class=CODE,delta=2
  5244                           global __ptext266
  5245  0000'                    __ptext266:
  5246                           	line	32
  5247                           	signat	_CRCCheck,4217
  5248                           	global	_EEPROMReadKey
  5249                           
  5250                           ; *************** function _EEPROMReadKey *****************
  5251                           ; Defined at:
  5252                           ;		line 204 in file "D:\Amit\E-Projects\PIC Projects\CMC\iBUTTON\main.c"
  5253                           ; Parameters:    Size  Location     Type
  5254                           ;  ReadAddress     1    wreg     unsigned char 
  5255                           ; Auto vars:     Size  Location     Type
  5256                           ;  ReadAddress     1    0[BANK0 ] unsigned char 
  5257                           ;  KeyLength       1    1[BANK0 ] unsigned char 
  5258                           ; Return value:  Size  Location     Type
  5259                           ;		None               void
  5260                           ; Registers used:
  5261                           ;		wreg, fsr0l, fsr0h, status,2, status,0, pclath, cstack
  5262                           ; Tracked objects:
  5263                           ;		On entry : 0/0
  5264                           ;		On exit  : 0/0
  5265                           ;		Unchanged: 0/0
  5266                           ; Data sizes:     COMMON   BANK0   BANK1
  5267                           ;      Locals:         2       2       0
  5268                           ;      Temp:     2
  5269                           ;      Total:    4
  5270                           ; This function calls:
  5271                           ;		_ReadEEPROM
  5272                           ; This function is called by:
  5273                           ;		_AvailabeKey
  5274                           ;		_Configuration
  5275                           ;		_ConfigureMasterKey
  5276                           ; This function uses a non-reentrant model
  5277                           ; 
  5278                           psect	text266
  5279                           	file	"D:\Amit\E-Projects\PIC Projects\CMC\iBUTTON\main.c"
  5280                           	line	204
  5281                           	global	__size_of_EEPROMReadKey
  5282  0039                     	__size_of_EEPROMReadKey	equ	__end_of_EEPROMReadKey-_EEPROMReadKey
  5283                           ;main.c: 203: void EEPROMReadKey(unsigned char ReadAddress)
  5284                           ;main.c: 204: {
  5285                           	
  5286  0000'                    _EEPROMReadKey:	
  5287                           	opt stack 2
  5288                           ; Regs used in _EEPROMReadKey: [wreg-fsr0h+status,2+status,0+pclath+cstack]
  5289                           ;EEPROMReadKey@ReadAddress stored from wreg
  5290  0000' 1283               	bcf	status, 5	;RP0=0, select bank0
  5291  0001' 1303               	bcf	status, 6	;RP1=0, select bank0
  5292  0002' 0080'              	movwf	(EEPROMReadKey@ReadAddress)
  5293                           	
  5294  0003'                    l62:	
  5295                           	
  5296  0003'                    l30001510:	
  5297                           	line	206
  5298  0003' 307E               	movlw	(07Eh)
  5299  0004' 0082'              	movwf	(??_EEPROMReadKey+0+0)
  5300  0005' 0802'              	movf	(??_EEPROMReadKey+0+0),w
  5301  0006' 058B               	andwf	(11),f	;volatile
  5302                           	
  5303  0007'                    l61:	
  5304                           	line	207
  5305                           ;main.c: 207: ReadAddress = ReadAddress * 8;
  5306  0007' 0800'              	movf	(EEPROMReadKey@ReadAddress),w
  5307  0008' 0082'              	movwf	(??_EEPROMReadKey+0+0)
  5308  0009' 3002               	movlw	(03h)-1
  5309  000A'                    u2005:
  5310  000A' 1003               	clrc
  5311  000B' 0D82'              	rlf	(??_EEPROMReadKey+0+0),f
  5312  000C' 3EFF               	addlw	-1
  5313  000D' 1D03               	skipz
  5314  000E' 280A'              	goto	u2005
  5315  000F' 1003               	clrc
  5316  0010' 0D02'              	rlf	(??_EEPROMReadKey+0+0),w
  5317  0011' 0080'              	movwf	(EEPROMReadKey@ReadAddress)
  5318                           	line	208
  5319                           ;main.c: 208: for(KeyLength=0;KeyLength<8;KeyLength++)
  5320  0012' 1003               	clrc
  5321  0013' 3000               	movlw	0
  5322  0014' 1803               	btfsc	status,0
  5323  0015' 3001               	movlw	1
  5324  0016' 0081'              	movwf	(EEPROMReadKey@KeyLength)
  5325                           	
  5326  0017'                    l30001513:	
  5327                           	line	210
  5328                           ;main.c: 209: {
  5329                           ;main.c: 210: DataEEAddr = ReadAddress++;
  5330  0017' 0800'              	movf	(EEPROMReadKey@ReadAddress),w
  5331  0018' 0082'              	movwf	(??_EEPROMReadKey+0+0)
  5332  0019' 0183'              	clrf	(??_EEPROMReadKey+0+0+1)
  5333  001A' 0802'              	movf	0+(??_EEPROMReadKey+0+0),w
  5334  001B' 0080'              	movwf	(_DataEEAddr)
  5335  001C' 0803'              	movf	1+(??_EEPROMReadKey+0+0),w
  5336  001D' 0081'              	movwf	(_DataEEAddr+1)
  5337                           	
  5338  001E'                    l30001514:	
  5339  001E' 3001               	movlw	(01h)
  5340  001F' 0082'              	movwf	(??_EEPROMReadKey+0+0)
  5341  0020' 0802'              	movf	(??_EEPROMReadKey+0+0),w
  5342  0021' 0780'              	addwf	(EEPROMReadKey@ReadAddress),f
  5343                           	
  5344  0022'                    l30001515:	
  5345                           	line	211
  5346                           ;main.c: 211: ReadEEPROM();
  5347  0022' 2000'              	fcall	_ReadEEPROM
  5348                           	
  5349  0023'                    l30001516:	
  5350                           	line	212
  5351                           ;main.c: 212: EEPROMKey[KeyLength] = DataEEData;
  5352  0023' 1283               	bcf	status, 5	;RP0=0, select bank0
  5353  0024' 1303               	bcf	status, 6	;RP1=0, select bank0
  5354  0025' 0802'              	movf	(_DataEEData),w
  5355  0026' 0082'              	movwf	(??_EEPROMReadKey+0+0)
  5356  0027' 0801'              	movf	(EEPROMReadKey@KeyLength),w
  5357  0028' 3E00'              	addlw	(_EEPROMKey)&0ffh
  5358  0029' 0084               	movwf	fsr0
  5359  002A' 0802'              	movf	(??_EEPROMReadKey+0+0),w
  5360  002B' 1383               	bcf	status, 7	;select IRP bank0
  5361  002C' 0080               	movwf	indf
  5362                           	
  5363  002D'                    l30001517:	
  5364                           	line	208
  5365  002D' 3001               	movlw	(01h)
  5366  002E' 0082'              	movwf	(??_EEPROMReadKey+0+0)
  5367  002F' 0802'              	movf	(??_EEPROMReadKey+0+0),w
  5368  0030' 0781'              	addwf	(EEPROMReadKey@KeyLength),f
  5369                           	
  5370  0031'                    l30001518:	
  5371  0031' 3008               	movlw	(08h)
  5372  0032' 0201'              	subwf	(EEPROMReadKey@KeyLength),w
  5373  0033' 1C03               	skipc
  5374  0034' 2836'              	goto	u2011
  5375  0035' 2837'              	goto	u2010
  5376  0036'                    u2011:
  5377  0036' 2817'              	goto	l30001513
  5378  0037'                    u2010:
  5379                           	
  5380  0037'                    l68:	
  5381                           	line	214
  5382  0037' 178B               	bsf	(11)+(7/8),(7)&7	;volatile
  5383                           	
  5384  0038'                    l59:	
  5385  0038' 0008               	return
  5386                           	opt stack 0
  5387                           GLOBAL	__end_of_EEPROMReadKey
  5388  0039'                    	__end_of_EEPROMReadKey:
  5389                           ; =============== function _EEPROMReadKey ends ============
  5390                           
  5391                           psect	text267,local,class=CODE,delta=2
  5392                           global __ptext267
  5393  0000'                    __ptext267:
  5394                           	line	215
  5395                           	signat	_EEPROMReadKey,4216
  5396                           	global	_CheckForiButtonDisconnect
  5397                           
  5398                           ; *************** function _CheckForiButtonDisconnect *****************
  5399                           ; Defined at:
  5400                           ;		line 68 in file "D:\Amit\E-Projects\PIC Projects\CMC\iBUTTON\OneWire.c"
  5401                           ; Parameters:    Size  Location     Type
  5402                           ;		None
  5403                           ; Auto vars:     Size  Location     Type
  5404                           ;		None
  5405                           ; Return value:  Size  Location     Type
  5406                           ;                  1    wreg      unsigned char 
  5407                           ; Registers used:
  5408                           ;		wreg, status,2, status,0, pclath, cstack
  5409                           ; Tracked objects:
  5410                           ;		On entry : 0/0
  5411                           ;		On exit  : 0/0
  5412                           ;		Unchanged: 0/0
  5413                           ; Data sizes:     COMMON   BANK0   BANK1
  5414                           ;      Locals:         0       0       0
  5415                           ;      Temp:     0
  5416                           ;      Total:    0
  5417                           ; This function calls:
  5418                           ;		_InitiButton
  5419                           ; This function is called by:
  5420                           ;		_Wait_With_LED_Blink
  5421                           ;		_LockOperation
  5422                           ; This function uses a non-reentrant model
  5423                           ; 
  5424                           psect	text267
  5425                           	file	"D:\Amit\E-Projects\PIC Projects\CMC\iBUTTON\OneWire.c"
  5426                           	line	68
  5427                           	global	__size_of_CheckForiButtonDisconnect
  5428  0002                     	__size_of_CheckForiButtonDisconnect	equ	__end_of_CheckForiButtonDisconnect-_CheckForiBu
                                 ttonDisconnect
  5429                           ;OneWire.c: 67: unsigned char CheckForiButtonDisconnect(void)
  5430                           ;OneWire.c: 68: {
  5431                           	
  5432  0000'                    _CheckForiButtonDisconnect:	
  5433                           	opt stack 2
  5434                           ; Regs used in _CheckForiButtonDisconnect: [wreg+status,2+status,0+pclath+cstack]
  5435                           	line	69
  5436                           	
  5437  0000'                    l30001567:	
  5438                           ;OneWire.c: 69: return(InitiButton());
  5439  0000' 2000'              	fcall	_InitiButton
  5440                           	
  5441  0001'                    l211:	
  5442  0001' 0008               	return
  5443                           	opt stack 0
  5444                           GLOBAL	__end_of_CheckForiButtonDisconnect
  5445  0002'                    	__end_of_CheckForiButtonDisconnect:
  5446                           ; =============== function _CheckForiButtonDisconnect ends ============
  5447                           
  5448                           psect	text268,local,class=CODE,delta=2
  5449                           global __ptext268
  5450  0000'                    __ptext268:
  5451                           	line	70
  5452                           	signat	_CheckForiButtonDisconnect,89
  5453                           	global	_ToggleLED
  5454                           
  5455                           ; *************** function _ToggleLED *****************
  5456                           ; Defined at:
  5457                           ;		line 85 in file "D:\Amit\E-Projects\PIC Projects\CMC\iBUTTON\main.c"
  5458                           ; Parameters:    Size  Location     Type
  5459                           ;		None
  5460                           ; Auto vars:     Size  Location     Type
  5461                           ;		None
  5462                           ; Return value:  Size  Location     Type
  5463                           ;		None               void
  5464                           ; Registers used:
  5465                           ;		wreg, status,2, status,0
  5466                           ; Tracked objects:
  5467                           ;		On entry : 0/0
  5468                           ;		On exit  : 0/0
  5469                           ;		Unchanged: 0/0
  5470                           ; Data sizes:     COMMON   BANK0   BANK1
  5471                           ;      Locals:         0       0       0
  5472                           ;      Temp:     0
  5473                           ;      Total:    0
  5474                           ; This function calls:
  5475                           ;		Nothing
  5476                           ; This function is called by:
  5477                           ;		_Wait_With_LED_Blink
  5478                           ;		_Configuration
  5479                           ; This function uses a non-reentrant model
  5480                           ; 
  5481                           psect	text268
  5482                           	file	"D:\Amit\E-Projects\PIC Projects\CMC\iBUTTON\main.c"
  5483                           	line	85
  5484                           	global	__size_of_ToggleLED
  5485  0018                     	__size_of_ToggleLED	equ	__end_of_ToggleLED-_ToggleLED
  5486                           ;main.c: 84: void ToggleLED(void)
  5487                           ;main.c: 85: {
  5488                           	
  5489  0000'                    _ToggleLED:	
  5490                           	opt stack 2
  5491                           ; Regs used in _ToggleLED: [wreg+status,2+status,0]
  5492                           	line	86
  5493                           	
  5494  0000'                    l30001678:	
  5495                           ;main.c: 86: if(RC0)
  5496  0000' 1283               	bcf	status, 5	;RP0=0, select bank0
  5497  0001' 1303               	bcf	status, 6	;RP1=0, select bank0
  5498  0002' 1C07               	btfss	(56/8),(56)&7
  5499  0003' 2805'              	goto	u2321
  5500  0004' 2806'              	goto	u2320
  5501  0005'                    u2321:
  5502  0005' 2808'              	goto	l30001680
  5503  0006'                    u2320:
  5504                           	
  5505  0006'                    l30001679:	
  5506                           	line	87
  5507                           ;main.c: 87: RC0=0x00;
  5508  0006' 1007               	bcf	(56/8),(56)&7
  5509  0007' 2817'              	goto	l14
  5510                           	
  5511  0008'                    l30001680:	
  5512                           	line	90
  5513                           ;main.c: 88: else
  5514                           ;main.c: 89: {
  5515                           ;main.c: 90: if(ToggleSkipFlag == 0)
  5516  0008' 0885'              	movf	(_ToggleSkipFlag),f
  5517  0009' 1D03               	skipz
  5518  000A' 280C'              	goto	u2331
  5519  000B' 280D'              	goto	u2330
  5520  000C'                    u2331:
  5521  000C' 2812'              	goto	l30001683
  5522  000D'                    u2330:
  5523                           	
  5524  000D'                    l30001681:	
  5525                           	line	92
  5526                           ;main.c: 91: {
  5527                           ;main.c: 92: ToggleSkipFlag=0x01;
  5528  000D' 0185'              	clrf	(_ToggleSkipFlag)
  5529  000E' 1403               	bsf	status,0
  5530  000F' 0D85'              	rlf	(_ToggleSkipFlag),f
  5531                           	
  5532  0010'                    l30001682:	
  5533                           	line	93
  5534                           ;main.c: 93: RC0=0x01;
  5535  0010' 1407               	bsf	(56/8),(56)&7
  5536  0011' 2817'              	goto	l14
  5537                           	
  5538  0012'                    l30001683:	
  5539                           	line	96
  5540                           ;main.c: 95: else
  5541                           ;main.c: 96: ToggleSkipFlag=0x00;
  5542  0012' 1003               	clrc
  5543  0013' 3000               	movlw	0
  5544  0014' 1803               	btfsc	status,0
  5545  0015' 3001               	movlw	1
  5546  0016' 0085'              	movwf	(_ToggleSkipFlag)
  5547                           	
  5548  0017'                    l14:	
  5549  0017' 0008               	return
  5550                           	opt stack 0
  5551                           GLOBAL	__end_of_ToggleLED
  5552  0018'                    	__end_of_ToggleLED:
  5553                           ; =============== function _ToggleLED ends ============
  5554                           
  5555                           psect	text269,local,class=CODE,delta=2
  5556                           global __ptext269
  5557  0000'                    __ptext269:
  5558                           	line	98
  5559                           	signat	_ToggleLED,88
  5560                           	global	_ReadByteToiButton
  5561                           
  5562                           ; *************** function _ReadByteToiButton *****************
  5563                           ; Defined at:
  5564                           ;		line 148 in file "D:\Amit\E-Projects\PIC Projects\CMC\iBUTTON\OneWire.c"
  5565                           ; Parameters:    Size  Location     Type
  5566                           ;		None
  5567                           ; Auto vars:     Size  Location     Type
  5568                           ;  i_byte          1    2[BANK0 ] unsigned char 
  5569                           ;  n               1    1[BANK0 ] unsigned char 
  5570                           ;  temp            1    0[BANK0 ] unsigned char 
  5571                           ;  mask            1    0        unsigned char 
  5572                           ; Return value:  Size  Location     Type
  5573                           ;                  1    wreg      unsigned char 
  5574                           ; Registers used:
  5575                           ;		wreg, status,2, status,0, pclath, cstack
  5576                           ; Tracked objects:
  5577                           ;		On entry : 0/0
  5578                           ;		On exit  : 0/0
  5579                           ;		Unchanged: 0/0
  5580                           ; Data sizes:     COMMON   BANK0   BANK1
  5581                           ;      Locals:         1       3       0
  5582                           ;      Temp:     1
  5583                           ;      Total:    4
  5584                           ; This function calls:
  5585                           ;		_delay_10us
  5586                           ; This function is called by:
  5587                           ;		_ReadiButton
  5588                           ; This function uses a non-reentrant model
  5589                           ; 
  5590                           psect	text269
  5591                           	file	"D:\Amit\E-Projects\PIC Projects\CMC\iBUTTON\OneWire.c"
  5592                           	line	148
  5593                           	global	__size_of_ReadByteToiButton
  5594  0039                     	__size_of_ReadByteToiButton	equ	__end_of_ReadByteToiButton-_ReadByteToiButton
  5595                           ;OneWire.c: 147: unsigned char ReadByteToiButton(void)
  5596                           ;OneWire.c: 148: {
  5597                           	
  5598  0000'                    _ReadByteToiButton:	
  5599                           	opt stack 2
  5600                           ; Regs used in _ReadByteToiButton: [wreg+status,2+status,0+pclath+cstack]
  5601                           	line	150
  5602                           	
  5603  0000'                    l30001519:	
  5604                           ;OneWire.c: 149: unsigned char n, i_byte, temp, mask;
  5605                           ;OneWire.c: 150: for (n=0; n<8; n++)
  5606  0000' 1003               	clrc
  5607  0001' 3000               	movlw	0
  5608  0002' 1803               	btfsc	status,0
  5609  0003' 3001               	movlw	1
  5610  0004' 1283               	bcf	status, 5	;RP0=0, select bank0
  5611  0005' 1303               	bcf	status, 6	;RP1=0, select bank0
  5612  0006' 0081'              	movwf	(ReadByteToiButton@n)
  5613                           	
  5614  0007'                    l222:	
  5615                           	line	152
  5616                           ;OneWire.c: 151: {
  5617                           ;OneWire.c: 152: TRISA2=0x00;
  5618  0007' 1683               	bsf	status, 5	;RP0=1, select bank1
  5619  0008' 1303               	bcf	status, 6	;RP1=0, select bank1
  5620  0009' 1105               	bcf	(1066/8)^080h,(1066)&7
  5621                           	line	153
  5622                           ;OneWire.c: 153: RA2=0x00;
  5623  000A' 1283               	bcf	status, 5	;RP0=0, select bank0
  5624  000B' 1303               	bcf	status, 6	;RP1=0, select bank0
  5625  000C' 1105               	bcf	(42/8),(42)&7
  5626                           	line	155
  5627                           # 155 "D:\Amit\E-Projects\PIC Projects\CMC\iBUTTON\OneWire.c"
  5628  000D' 0000                    NOP ;#
  5629                           	line	156
  5630                           # 156 "D:\Amit\E-Projects\PIC Projects\CMC\iBUTTON\OneWire.c"
  5631  000E' 0000                NOP ;#
  5632                           	line	158
  5633                           # 158 "D:\Amit\E-Projects\PIC Projects\CMC\iBUTTON\OneWire.c"
  5634                           # 157 ;#
  5635                           psect	text269
  5636                           	line	160
  5637                           ;OneWire.c: 160: TRISA2=0x01;
  5638  000F' 1683               	bsf	status, 5	;RP0=1, select bank1
  5639  0010' 1303               	bcf	status, 6	;RP1=0, select bank1
  5640  0011' 1505               	bsf	(1066/8)^080h,(1066)&7
  5641                           # 160 "D:\Amit\E-Projects\PIC Projects\CMC\iBUTTON\OneWire.c"
  5642  0012' 0000                    NOP ;#
  5643                           	line	161
  5644                           # 161 "D:\Amit\E-Projects\PIC Projects\CMC\iBUTTON\OneWire.c"
  5645  0013' 0000                NOP ;#
  5646                           	line	163
  5647                           # 163 "D:\Amit\E-Projects\PIC Projects\CMC\iBUTTON\OneWire.c"
  5648                           # 162 ;#
  5649                           psect	text269
  5650                           	
  5651  0014'                    l30001522:	
  5652                           	line	165
  5653                           ;OneWire.c: 165: temp=PORTA;
  5654  0014' 1283               	bcf	status, 5	;RP0=0, select bank0
  5655  0015' 1303               	bcf	status, 6	;RP1=0, select bank0
  5656  0016' 0805               	movf	(5),w	;volatile
  5657  0017' 0080'              	movwf	(ReadByteToiButton@temp)
  5658                           	
  5659  0018'                    l30001523:	
  5660                           	line	166
  5661                           ;OneWire.c: 166: if (temp & 4)
  5662  0018' 1D00'              	btfss	(ReadByteToiButton@temp),(2)&7
  5663  0019' 281B'              	goto	u2021
  5664  001A' 281C'              	goto	u2020
  5665  001B'                    u2021:
  5666  001B' 2823'              	goto	l30001525
  5667  001C'                    u2020:
  5668                           	
  5669  001C'                    l30001524:	
  5670                           	line	168
  5671                           ;OneWire.c: 167: {
  5672                           ;OneWire.c: 168: i_byte=(i_byte>>1) | 0x80;
  5673  001C' 0802'              	movf	(ReadByteToiButton@i_byte),w
  5674  001D' 0080'              	movwf	(??_ReadByteToiButton+0+0)
  5675  001E' 1003               	clrc
  5676  001F' 0C00'              	rrf	(??_ReadByteToiButton+0+0),w
  5677  0020' 3880               	iorlw	080h
  5678  0021' 0082'              	movwf	(ReadByteToiButton@i_byte)
  5679  0022' 2828'              	goto	l30001526
  5680                           	
  5681  0023'                    l30001525:	
  5682                           	line	172
  5683                           ;OneWire.c: 170: else
  5684                           ;OneWire.c: 171: {
  5685                           ;OneWire.c: 172: i_byte=i_byte >> 1;
  5686  0023' 0802'              	movf	(ReadByteToiButton@i_byte),w
  5687  0024' 0080'              	movwf	(??_ReadByteToiButton+0+0)
  5688  0025' 1003               	clrc
  5689  0026' 0C00'              	rrf	(??_ReadByteToiButton+0+0),w
  5690  0027' 0082'              	movwf	(ReadByteToiButton@i_byte)
  5691                           	
  5692  0028'                    l30001526:	
  5693                           	line	174
  5694                           ;OneWire.c: 173: }
  5695                           ;OneWire.c: 174: t=6;;
  5696  0028' 3006               	movlw	(06h)
  5697  0029' 0086'              	movwf	(_t)
  5698                           	
  5699  002A'                    l30001527:	
  5700                           	line	175
  5701                           ;OneWire.c: 175: delay_10us();
  5702  002A' 2000'              	fcall	_delay_10us
  5703                           	
  5704  002B'                    l30001528:	
  5705                           	line	150
  5706  002B' 3001               	movlw	(01h)
  5707  002C' 0080'              	movwf	(??_ReadByteToiButton+0+0)
  5708  002D' 0800'              	movf	(??_ReadByteToiButton+0+0),w
  5709  002E' 1283               	bcf	status, 5	;RP0=0, select bank0
  5710  002F' 1303               	bcf	status, 6	;RP1=0, select bank0
  5711  0030' 0781'              	addwf	(ReadByteToiButton@n),f
  5712                           	
  5713  0031'                    l30001529:	
  5714  0031' 3008               	movlw	(08h)
  5715  0032' 0201'              	subwf	(ReadByteToiButton@n),w
  5716  0033' 1C03               	skipc
  5717  0034' 2836'              	goto	u2031
  5718  0035' 2837'              	goto	u2030
  5719  0036'                    u2031:
  5720  0036' 2807'              	goto	l222
  5721  0037'                    u2030:
  5722                           	
  5723  0037'                    l30001530:	
  5724                           	line	177
  5725                           ;OneWire.c: 176: }
  5726                           ;OneWire.c: 177: return(i_byte);
  5727  0037' 0802'              	movf	(ReadByteToiButton@i_byte),w
  5728                           	
  5729  0038'                    l221:	
  5730  0038' 0008               	return
  5731                           	opt stack 0
  5732                           GLOBAL	__end_of_ReadByteToiButton
  5733  0039'                    	__end_of_ReadByteToiButton:
  5734                           ; =============== function _ReadByteToiButton ends ============
  5735                           
  5736                           psect	text270,local,class=CODE,delta=2
  5737                           global __ptext270
  5738  0000'                    __ptext270:
  5739                           	line	178
  5740                           	signat	_ReadByteToiButton,89
  5741                           	global	_ReadEEPROM
  5742                           
  5743                           ; *************** function _ReadEEPROM *****************
  5744                           ; Defined at:
  5745                           ;		line 181 in file "D:\Amit\E-Projects\PIC Projects\CMC\iBUTTON\main.c"
  5746                           ; Parameters:    Size  Location     Type
  5747                           ;		None
  5748                           ; Auto vars:     Size  Location     Type
  5749                           ;		None
  5750                           ; Return value:  Size  Location     Type
  5751                           ;		None               void
  5752                           ; Registers used:
  5753                           ;		wreg, status,2, status,0
  5754                           ; Tracked objects:
  5755                           ;		On entry : 0/0
  5756                           ;		On exit  : 0/0
  5757                           ;		Unchanged: 0/0
  5758                           ; Data sizes:     COMMON   BANK0   BANK1
  5759                           ;      Locals:         2       0       0
  5760                           ;      Temp:     2
  5761                           ;      Total:    2
  5762                           ; This function calls:
  5763                           ;		Nothing
  5764                           ; This function is called by:
  5765                           ;		_EEPROMReadKey
  5766                           ; This function uses a non-reentrant model
  5767                           ; 
  5768                           psect	text270
  5769                           	file	"D:\Amit\E-Projects\PIC Projects\CMC\iBUTTON\main.c"
  5770                           	line	181
  5771                           	global	__size_of_ReadEEPROM
  5772  001A                     	__size_of_ReadEEPROM	equ	__end_of_ReadEEPROM-_ReadEEPROM
  5773                           ;main.c: 180: void ReadEEPROM(void)
  5774                           ;main.c: 181: {
  5775                           	
  5776  0000'                    _ReadEEPROM:	
  5777                           	opt stack 1
  5778                           ; Regs used in _ReadEEPROM: [wreg+status,2+status,0]
  5779                           	line	182
  5780                           	
  5781  0000'                    l30001506:	
  5782                           ;main.c: 182: EEADR=DataEEAddr;
  5783  0000' 1283               	bcf	status, 5	;RP0=0, select bank0
  5784  0001' 1303               	bcf	status, 6	;RP1=0, select bank0
  5785  0002' 0800'              	movf	(_DataEEAddr),w
  5786  0003' 1283               	bcf	status, 5	;RP0=0, select bank2
  5787  0004' 1703               	bsf	status, 6	;RP1=1, select bank2
  5788  0005' 008D               	movwf	(269)^0100h	;volatile
  5789                           	
  5790  0006'                    l30001507:	
  5791                           	line	183
  5792                           ;main.c: 183: EECON1=0x00;
  5793  0006' 1003               	clrc
  5794  0007' 3000               	movlw	0
  5795  0008' 1803               	btfsc	status,0
  5796  0009' 3001               	movlw	1
  5797  000A' 1683               	bsf	status, 5	;RP0=1, select bank3
  5798  000B' 1703               	bsf	status, 6	;RP1=1, select bank3
  5799  000C' 008C               	movwf	(396)^0180h	;volatile
  5800                           	
  5801  000D'                    l30001508:	
  5802                           	line	184
  5803                           ;main.c: 184: RD=0x01;
  5804  000D' 140C               	bsf	(3168/8)^0180h,(3168)&7
  5805                           	
  5806  000E'                    l30001509:	
  5807                           	line	185
  5808                           ;main.c: 185: DataEEData=EEDAT;
  5809  000E' 1283               	bcf	status, 5	;RP0=0, select bank2
  5810  000F' 1703               	bsf	status, 6	;RP1=1, select bank2
  5811  0010' 080C               	movf	(268)^0100h,w	;volatile
  5812  0011' 0080'              	movwf	(??_ReadEEPROM+0+0)
  5813  0012' 0181'              	clrf	(??_ReadEEPROM+0+0+1)
  5814  0013' 0800'              	movf	0+(??_ReadEEPROM+0+0),w
  5815  0014' 1283               	bcf	status, 5	;RP0=0, select bank0
  5816  0015' 1303               	bcf	status, 6	;RP1=0, select bank0
  5817  0016' 0082'              	movwf	(_DataEEData)
  5818  0017' 0801'              	movf	1+(??_ReadEEPROM+0+0),w
  5819  0018' 0083'              	movwf	(_DataEEData+1)
  5820                           	
  5821  0019'                    l54:	
  5822  0019' 0008               	return
  5823                           	opt stack 0
  5824                           GLOBAL	__end_of_ReadEEPROM
  5825  001A'                    	__end_of_ReadEEPROM:
  5826                           ; =============== function _ReadEEPROM ends ============
  5827                           
  5828                           psect	text271,local,class=CODE,delta=2
  5829                           global __ptext271
  5830  0000'                    __ptext271:
  5831                           	line	186
  5832                           	signat	_ReadEEPROM,88
  5833                           	global	_DelayMs
  5834                           
  5835                           ; *************** function _DelayMs *****************
  5836                           ; Defined at:
  5837                           ;		line 59 in file "D:\Amit\E-Projects\PIC Projects\CMC\iBUTTON\main.c"
  5838                           ; Parameters:    Size  Location     Type
  5839                           ;  TimeCnt         2    4[BANK0 ] unsigned int 
  5840                           ; Auto vars:     Size  Location     Type
  5841                           ;  j               2    2[BANK0 ] unsigned int 
  5842                           ;  i               2    0[BANK0 ] unsigned int 
  5843                           ; Return value:  Size  Location     Type
  5844                           ;		None               void
  5845                           ; Registers used:
  5846                           ;		wreg
  5847                           ; Tracked objects:
  5848                           ;		On entry : 0/0
  5849                           ;		On exit  : 0/0
  5850                           ;		Unchanged: 0/0
  5851                           ; Data sizes:     COMMON   BANK0   BANK1
  5852                           ;      Locals:         0       6       0
  5853                           ;      Temp:     0
  5854                           ;      Total:    6
  5855                           ; This function calls:
  5856                           ;		Nothing
  5857                           ; This function is called by:
  5858                           ;		_GoToSleep
  5859                           ;		_DoorOpen
  5860                           ;		_DoorClose
  5861                           ;		_BuzzerBeep
  5862                           ;		_EEPROMWriteKeyByte
  5863                           ;		_EEPROMWriteKey
  5864                           ;		_Configuration
  5865                           ;		_InvalidKeyIndication
  5866                           ;		_LockOperation
  5867                           ;		_main
  5868                           ; This function uses a non-reentrant model
  5869                           ; 
  5870                           psect	text271
  5871                           	file	"D:\Amit\E-Projects\PIC Projects\CMC\iBUTTON\main.c"
  5872                           	line	59
  5873                           	global	__size_of_DelayMs
  5874  002B                     	__size_of_DelayMs	equ	__end_of_DelayMs-_DelayMs
  5875                           ;main.c: 58: void DelayMs(unsigned int TimeCnt)
  5876                           ;main.c: 59: {
  5877                           	
  5878  0000'                    _DelayMs:	
  5879                           	opt stack 1
  5880                           ; Regs used in _DelayMs: [wreg]
  5881                           	line	61
  5882                           	
  5883  0000'                    l30001626:	
  5884                           ;main.c: 60: unsigned int i,j;
  5885                           ;main.c: 61: for(i=0;i<TimeCnt;i++)
  5886  0000' 3000               	movlw	low(0)
  5887  0001' 1283               	bcf	status, 5	;RP0=0, select bank0
  5888  0002' 1303               	bcf	status, 6	;RP1=0, select bank0
  5889  0003' 0080'              	movwf	(DelayMs@i)
  5890  0004' 3000               	movlw	high(0)
  5891  0005' 0081'              	movwf	((DelayMs@i))+1
  5892  0006' 2820'              	goto	l9
  5893                           	
  5894  0007'                    l30001627:	
  5895                           	line	63
  5896                           ;main.c: 62: {
  5897                           ;main.c: 63: for(j=0;j<50;j++);
  5898  0007' 3000               	movlw	low(0)
  5899  0008' 0082'              	movwf	(DelayMs@j)
  5900  0009' 3000               	movlw	high(0)
  5901  000A' 0083'              	movwf	((DelayMs@j))+1
  5902                           	
  5903  000B'                    l30001629:	
  5904  000B' 3001               	movlw	low(01h)
  5905  000C' 0782'              	addwf	(DelayMs@j),f
  5906  000D' 1803               	skipnc
  5907  000E' 0A83'              	incf	(DelayMs@j+1),f
  5908  000F' 3000               	movlw	high(01h)
  5909  0010' 0783'              	addwf	(DelayMs@j+1),f
  5910  0011' 3000               	movlw	high(032h)
  5911  0012' 0203'              	subwf	(DelayMs@j+1),w
  5912  0013' 3032               	movlw	low(032h)
  5913  0014' 1903               	skipnz
  5914  0015' 0202'              	subwf	(DelayMs@j),w
  5915  0016' 1C03               	skipc
  5916  0017' 2819'              	goto	u2201
  5917  0018' 281A'              	goto	u2200
  5918  0019'                    u2201:
  5919  0019' 280B'              	goto	l30001629
  5920  001A'                    u2200:
  5921                           	
  5922  001A'                    l30001630:	
  5923                           	line	61
  5924  001A' 3001               	movlw	low(01h)
  5925  001B' 0780'              	addwf	(DelayMs@i),f
  5926  001C' 1803               	skipnc
  5927  001D' 0A81'              	incf	(DelayMs@i+1),f
  5928  001E' 3000               	movlw	high(01h)
  5929  001F' 0781'              	addwf	(DelayMs@i+1),f
  5930                           	
  5931  0020'                    l9:	
  5932  0020' 0805'              	movf	(DelayMs@TimeCnt+1),w
  5933  0021' 0201'              	subwf	(DelayMs@i+1),w
  5934  0022' 1D03               	skipz
  5935  0023' 2826'              	goto	u2215
  5936  0024' 0804'              	movf	(DelayMs@TimeCnt),w
  5937  0025' 0200'              	subwf	(DelayMs@i),w
  5938  0026'                    u2215:
  5939  0026' 1C03               	skipc
  5940  0027' 2829'              	goto	u2211
  5941  0028' 282A'              	goto	u2210
  5942  0029'                    u2211:
  5943  0029' 2807'              	goto	l30001627
  5944  002A'                    u2210:
  5945                           	
  5946  002A'                    l5:	
  5947  002A' 0008               	return
  5948                           	opt stack 0
  5949                           GLOBAL	__end_of_DelayMs
  5950  002B'                    	__end_of_DelayMs:
  5951                           ; =============== function _DelayMs ends ============
  5952                           
  5953                           psect	text272,local,class=CODE,delta=2
  5954                           global __ptext272
  5955  0000'                    __ptext272:
  5956                           	line	65
  5957                           	signat	_DelayMs,4216
  5958                           	global	_InitiButton
  5959                           
  5960                           ; *************** function _InitiButton *****************
  5961                           ; Defined at:
  5962                           ;		line 80 in file "D:\Amit\E-Projects\PIC Projects\CMC\iBUTTON\OneWire.c"
  5963                           ; Parameters:    Size  Location     Type
  5964                           ;		None
  5965                           ; Auto vars:     Size  Location     Type
  5966                           ;  PresencePuls    1    0[COMMON] unsigned char 
  5967                           ; Return value:  Size  Location     Type
  5968                           ;                  1    wreg      unsigned char 
  5969                           ; Registers used:
  5970                           ;		wreg, status,2, status,0, pclath, cstack
  5971                           ; Tracked objects:
  5972                           ;		On entry : 0/0
  5973                           ;		On exit  : 0/0
  5974                           ;		Unchanged: 0/0
  5975                           ; Data sizes:     COMMON   BANK0   BANK1
  5976                           ;      Locals:         1       0       0
  5977                           ;      Temp:     0
  5978                           ;      Total:    1
  5979                           ; This function calls:
  5980                           ;		_delay_10us
  5981                           ; This function is called by:
  5982                           ;		_ReadiButton
  5983                           ;		_CheckForiButtonDisconnect
  5984                           ; This function uses a non-reentrant model
  5985                           ; 
  5986                           psect	text272
  5987                           	file	"D:\Amit\E-Projects\PIC Projects\CMC\iBUTTON\OneWire.c"
  5988                           	line	80
  5989                           	global	__size_of_InitiButton
  5990  0035                     	__size_of_InitiButton	equ	__end_of_InitiButton-_InitiButton
  5991                           ;OneWire.c: 79: unsigned char InitiButton(void)
  5992                           ;OneWire.c: 80: {
  5993                           	
  5994  0000'                    _InitiButton:	
  5995                           	opt stack 1
  5996                           ; Regs used in _InitiButton: [wreg+status,2+status,0+pclath+cstack]
  5997                           	line	83
  5998                           	
  5999  0000'                    l30001551:	
  6000                           ;OneWire.c: 81: unsigned char PresencePulse;
  6001                           ;OneWire.c: 83: TRISA2=0x00;
  6002  0000' 1683               	bsf	status, 5	;RP0=1, select bank1
  6003  0001' 1303               	bcf	status, 6	;RP1=0, select bank1
  6004  0002' 1105               	bcf	(1066/8)^080h,(1066)&7
  6005                           	line	84
  6006                           ;OneWire.c: 84: RA2=0x01;
  6007  0003' 1283               	bcf	status, 5	;RP0=0, select bank0
  6008  0004' 1303               	bcf	status, 6	;RP1=0, select bank0
  6009  0005' 1505               	bsf	(42/8),(42)&7
  6010                           	line	85
  6011                           ;OneWire.c: 85: TRISA2=0x00;
  6012  0006' 1683               	bsf	status, 5	;RP0=1, select bank1
  6013  0007' 1303               	bcf	status, 6	;RP1=0, select bank1
  6014  0008' 1105               	bcf	(1066/8)^080h,(1066)&7
  6015                           	line	86
  6016                           ;OneWire.c: 86: RA2=0x00;
  6017  0009' 1283               	bcf	status, 5	;RP0=0, select bank0
  6018  000A' 1303               	bcf	status, 6	;RP1=0, select bank0
  6019  000B' 1105               	bcf	(42/8),(42)&7
  6020                           	
  6021  000C'                    l30001552:	
  6022                           	line	88
  6023                           ;OneWire.c: 88: t=42;;
  6024  000C' 302A               	movlw	(02Ah)
  6025  000D' 0086'              	movwf	(_t)
  6026                           	
  6027  000E'                    l30001553:	
  6028                           	line	89
  6029                           ;OneWire.c: 89: delay_10us();
  6030  000E' 2000'              	fcall	_delay_10us
  6031                           	
  6032  000F'                    l30001554:	
  6033                           	line	91
  6034                           ;OneWire.c: 91: TRISA2=0x00;
  6035  000F' 1683               	bsf	status, 5	;RP0=1, select bank1
  6036  0010' 1303               	bcf	status, 6	;RP1=0, select bank1
  6037  0011' 1105               	bcf	(1066/8)^080h,(1066)&7
  6038                           	
  6039  0012'                    l30001555:	
  6040                           	line	92
  6041                           ;OneWire.c: 92: RA2=0x01;
  6042  0012' 1283               	bcf	status, 5	;RP0=0, select bank0
  6043  0013' 1303               	bcf	status, 6	;RP1=0, select bank0
  6044  0014' 1505               	bsf	(42/8),(42)&7
  6045                           	
  6046  0015'                    l30001556:	
  6047                           	line	94
  6048                           ;OneWire.c: 94: t=6;;
  6049  0015' 3006               	movlw	(06h)
  6050  0016' 0086'              	movwf	(_t)
  6051                           	line	95
  6052                           ;OneWire.c: 95: delay_10us();
  6053  0017' 2000'              	fcall	_delay_10us
  6054                           	
  6055  0018'                    l30001557:	
  6056                           	line	97
  6057                           ;OneWire.c: 97: TRISA2=0x01;
  6058  0018' 1683               	bsf	status, 5	;RP0=1, select bank1
  6059  0019' 1303               	bcf	status, 6	;RP1=0, select bank1
  6060  001A' 1505               	bsf	(1066/8)^080h,(1066)&7
  6061                           	
  6062  001B'                    l30001558:	
  6063                           	line	98
  6064                           ;OneWire.c: 98: if (RA2 == 1)
  6065  001B' 1283               	bcf	status, 5	;RP0=0, select bank0
  6066  001C' 1303               	bcf	status, 6	;RP1=0, select bank0
  6067  001D' 1D05               	btfss	(42/8),(42)&7
  6068  001E' 2820'              	goto	u2071
  6069  001F' 2821'              	goto	u2070
  6070  0020'                    u2071:
  6071  0020' 2827'              	goto	l30001560
  6072  0021'                    u2070:
  6073                           	
  6074  0021'                    l30001559:	
  6075                           	line	99
  6076                           ;OneWire.c: 99: PresencePulse=0x00;
  6077  0021' 1003               	clrc
  6078  0022' 3000               	movlw	0
  6079  0023' 1803               	btfsc	status,0
  6080  0024' 3001               	movlw	1
  6081  0025' 0080'              	movwf	(InitiButton@PresencePulse)
  6082  0026' 282A'              	goto	l30001561
  6083                           	
  6084  0027'                    l30001560:	
  6085                           	line	101
  6086                           ;OneWire.c: 100: else
  6087                           ;OneWire.c: 101: PresencePulse=0x01;
  6088  0027' 0180'              	clrf	(InitiButton@PresencePulse)
  6089  0028' 1403               	bsf	status,0
  6090  0029' 0D80'              	rlf	(InitiButton@PresencePulse),f
  6091                           	
  6092  002A'                    l30001561:	
  6093                           	line	103
  6094                           ;OneWire.c: 103: t=50;;
  6095  002A' 3032               	movlw	(032h)
  6096  002B' 0086'              	movwf	(_t)
  6097                           	
  6098  002C'                    l30001562:	
  6099                           	line	104
  6100                           ;OneWire.c: 104: delay_10us();
  6101  002C' 2000'              	fcall	_delay_10us
  6102                           	
  6103  002D'                    l30001563:	
  6104                           	line	106
  6105                           ;OneWire.c: 106: TRISA2=0x00;
  6106  002D' 1683               	bsf	status, 5	;RP0=1, select bank1
  6107  002E' 1303               	bcf	status, 6	;RP1=0, select bank1
  6108  002F' 1105               	bcf	(1066/8)^080h,(1066)&7
  6109                           	
  6110  0030'                    l30001564:	
  6111                           	line	107
  6112                           ;OneWire.c: 107: RA2=0x01;
  6113  0030' 1283               	bcf	status, 5	;RP0=0, select bank0
  6114  0031' 1303               	bcf	status, 6	;RP1=0, select bank0
  6115  0032' 1505               	bsf	(42/8),(42)&7
  6116                           	
  6117  0033'                    l30001565:	
  6118                           	line	108
  6119                           ;OneWire.c: 108: return (PresencePulse);
  6120  0033' 0800'              	movf	(InitiButton@PresencePulse),w
  6121                           	
  6122  0034'                    l212:	
  6123  0034' 0008               	return
  6124                           	opt stack 0
  6125                           GLOBAL	__end_of_InitiButton
  6126  0035'                    	__end_of_InitiButton:
  6127                           ; =============== function _InitiButton ends ============
  6128                           
  6129                           psect	text273,local,class=CODE,delta=2
  6130                           global __ptext273
  6131  0000'                    __ptext273:
  6132                           	line	109
  6133                           	signat	_InitiButton,89
  6134                           	global	_WriteEEPROM
  6135                           
  6136                           ; *************** function _WriteEEPROM *****************
  6137                           ; Defined at:
  6138                           ;		line 189 in file "D:\Amit\E-Projects\PIC Projects\CMC\iBUTTON\main.c"
  6139                           ; Parameters:    Size  Location     Type
  6140                           ;		None
  6141                           ; Auto vars:     Size  Location     Type
  6142                           ;		None
  6143                           ; Return value:  Size  Location     Type
  6144                           ;		None               void
  6145                           ; Registers used:
  6146                           ;		wreg, status,2, status,0
  6147                           ; Tracked objects:
  6148                           ;		On entry : 0/0
  6149                           ;		On exit  : 0/0
  6150                           ;		Unchanged: 0/0
  6151                           ; Data sizes:     COMMON   BANK0   BANK1
  6152                           ;      Locals:         0       0       0
  6153                           ;      Temp:     0
  6154                           ;      Total:    0
  6155                           ; This function calls:
  6156                           ;		Nothing
  6157                           ; This function is called by:
  6158                           ;		_EEPROMWriteKeyByte
  6159                           ;		_EEPROMWriteKey
  6160                           ;		_main
  6161                           ; This function uses a non-reentrant model
  6162                           ; 
  6163                           psect	text273
  6164                           	file	"D:\Amit\E-Projects\PIC Projects\CMC\iBUTTON\main.c"
  6165                           	line	189
  6166                           	global	__size_of_WriteEEPROM
  6167  0029                     	__size_of_WriteEEPROM	equ	__end_of_WriteEEPROM-_WriteEEPROM
  6168                           ;main.c: 188: void WriteEEPROM(void)
  6169                           ;main.c: 189: {
  6170                           	
  6171  0000'                    _WriteEEPROM:	
  6172                           	opt stack 1
  6173                           ; Regs used in _WriteEEPROM: [wreg+status,2+status,0]
  6174                           	line	190
  6175                           	
  6176  0000'                    l30001670:	
  6177                           ;main.c: 190: EEADR=DataEEAddr;
  6178  0000' 1283               	bcf	status, 5	;RP0=0, select bank0
  6179  0001' 1303               	bcf	status, 6	;RP1=0, select bank0
  6180  0002' 0800'              	movf	(_DataEEAddr),w
  6181  0003' 1283               	bcf	status, 5	;RP0=0, select bank2
  6182  0004' 1703               	bsf	status, 6	;RP1=1, select bank2
  6183  0005' 008D               	movwf	(269)^0100h	;volatile
  6184                           	line	191
  6185                           ;main.c: 191: EEDAT=DataEEData;
  6186  0006' 1283               	bcf	status, 5	;RP0=0, select bank0
  6187  0007' 1303               	bcf	status, 6	;RP1=0, select bank0
  6188  0008' 0802'              	movf	(_DataEEData),w
  6189  0009' 1283               	bcf	status, 5	;RP0=0, select bank2
  6190  000A' 1703               	bsf	status, 6	;RP1=1, select bank2
  6191  000B' 008C               	movwf	(268)^0100h	;volatile
  6192                           	
  6193  000C'                    l30001671:	
  6194                           	line	192
  6195                           ;main.c: 192: EECON1=0x00;
  6196  000C' 1003               	clrc
  6197  000D' 3000               	movlw	0
  6198  000E' 1803               	btfsc	status,0
  6199  000F' 3001               	movlw	1
  6200  0010' 1683               	bsf	status, 5	;RP0=1, select bank3
  6201  0011' 1703               	bsf	status, 6	;RP1=1, select bank3
  6202  0012' 008C               	movwf	(396)^0180h	;volatile
  6203                           	
  6204  0013'                    l30001672:	
  6205                           	line	193
  6206                           ;main.c: 193: WREN=0x01;
  6207  0013' 150C               	bsf	(3170/8)^0180h,(3170)&7
  6208                           	
  6209  0014'                    l30001673:	
  6210                           	line	194
  6211                           ;main.c: 194: GIE=0x00;
  6212  0014' 1283               	bcf	status, 5	;RP0=0, select bank0
  6213  0015' 1303               	bcf	status, 6	;RP1=0, select bank0
  6214  0016' 138B               	bcf	(95/8),(95)&7
  6215                           	
  6216  0017'                    l56:	
  6217                           	line	195
  6218  0017' 1B8B               	btfsc	(95/8),(95)&7
  6219  0018' 281A'              	goto	u2311
  6220  0019' 281B'              	goto	u2310
  6221  001A'                    u2311:
  6222  001A' 2817'              	goto	l56
  6223  001B'                    u2310:
  6224                           	
  6225  001B'                    l30001674:	
  6226                           	line	196
  6227                           ;main.c: 196: EECON2=0x55;
  6228  001B' 3055               	movlw	(055h)
  6229  001C' 1683               	bsf	status, 5	;RP0=1, select bank3
  6230  001D' 1703               	bsf	status, 6	;RP1=1, select bank3
  6231  001E' 008D               	movwf	(397)^0180h	;volatile
  6232                           	line	197
  6233                           ;main.c: 197: EECON2=0xAA;
  6234  001F' 30AA               	movlw	(0AAh)
  6235  0020' 008D               	movwf	(397)^0180h	;volatile
  6236                           	
  6237  0021'                    l30001675:	
  6238                           	line	198
  6239                           ;main.c: 198: WR=0x01;
  6240  0021' 148C               	bsf	(3169/8)^0180h,(3169)&7
  6241                           	
  6242  0022'                    l30001676:	
  6243                           	line	199
  6244                           ;main.c: 199: GIE=0x01;
  6245  0022' 1283               	bcf	status, 5	;RP0=0, select bank0
  6246  0023' 1303               	bcf	status, 6	;RP1=0, select bank0
  6247  0024' 178B               	bsf	(95/8),(95)&7
  6248                           	
  6249  0025'                    l30001677:	
  6250                           	line	200
  6251                           ;main.c: 200: WREN=0x00;
  6252  0025' 1683               	bsf	status, 5	;RP0=1, select bank3
  6253  0026' 1703               	bsf	status, 6	;RP1=1, select bank3
  6254  0027' 110C               	bcf	(3170/8)^0180h,(3170)&7
  6255                           	
  6256  0028'                    l55:	
  6257  0028' 0008               	return
  6258                           	opt stack 0
  6259                           GLOBAL	__end_of_WriteEEPROM
  6260  0029'                    	__end_of_WriteEEPROM:
  6261                           ; =============== function _WriteEEPROM ends ============
  6262                           
  6263                           psect	text274,local,class=CODE,delta=2
  6264                           global __ptext274
  6265  0000'                    __ptext274:
  6266                           	line	201
  6267                           	signat	_WriteEEPROM,88
  6268                           	global	_delay_10us
  6269                           
  6270                           ; *************** function _delay_10us *****************
  6271                           ; Defined at:
  6272                           ;		line 186 in file "D:\Amit\E-Projects\PIC Projects\CMC\iBUTTON\OneWire.c"
  6273                           ; Parameters:    Size  Location     Type
  6274                           ;		None
  6275                           ; Auto vars:     Size  Location     Type
  6276                           ;		None
  6277                           ; Return value:  Size  Location     Type
  6278                           ;		None               void
  6279                           ; Registers used:
  6280                           ;		None
  6281                           ; Tracked objects:
  6282                           ;		On entry : 0/0
  6283                           ;		On exit  : 0/0
  6284                           ;		Unchanged: 0/0
  6285                           ; Data sizes:     COMMON   BANK0   BANK1
  6286                           ;      Locals:         0       0       0
  6287                           ;      Temp:     0
  6288                           ;      Total:    0
  6289                           ; This function calls:
  6290                           ;		Nothing
  6291                           ; This function is called by:
  6292                           ;		_InitiButton
  6293                           ;		_WriteByteToiButton
  6294                           ;		_ReadByteToiButton
  6295                           ; This function uses a non-reentrant model
  6296                           ; 
  6297                           psect	text274
  6298                           	file	"D:\Amit\E-Projects\PIC Projects\CMC\iBUTTON\OneWire.c"
  6299                           	line	186
  6300                           	global	__size_of_delay_10us
  6301  000D                     	__size_of_delay_10us	equ	__end_of_delay_10us-_delay_10us
  6302                           ;OneWire.c: 185: void delay_10us(void)
  6303                           ;OneWire.c: 186: {
  6304                           	
  6305  0000'                    _delay_10us:	
  6306                           	opt stack 0
  6307                           ; Regs used in _delay_10us: []
  6308                           	line	188
  6309                           	
  6310  0000'                    l30001550:	
  6311                           # 188 "D:\Amit\E-Projects\PIC Projects\CMC\iBUTTON\OneWire.c"
  6312  0000' 1283                BCF _STATUS,5 ;#
  6313                           	line	189
  6314                           # 189 "D:\Amit\E-Projects\PIC Projects\CMC\iBUTTON\OneWire.c"
  6315  0001'                    DELAY_10US_XZ: ;#
  6316                           	line	190
  6317                           # 190 "D:\Amit\E-Projects\PIC Projects\CMC\iBUTTON\OneWire.c"
  6318  0001' 0000                NOP ;#
  6319                           	line	191
  6320                           # 191 "D:\Amit\E-Projects\PIC Projects\CMC\iBUTTON\OneWire.c"
  6321  0002' 0000                NOP ;#
  6322                           	line	192
  6323                           # 192 "D:\Amit\E-Projects\PIC Projects\CMC\iBUTTON\OneWire.c"
  6324  0003' 0000                NOP ;#
  6325                           	line	193
  6326                           # 193 "D:\Amit\E-Projects\PIC Projects\CMC\iBUTTON\OneWire.c"
  6327  0004' 0000                NOP ;#
  6328                           	line	194
  6329                           # 194 "D:\Amit\E-Projects\PIC Projects\CMC\iBUTTON\OneWire.c"
  6330  0005' 0000                NOP ;#
  6331                           	line	195
  6332                           # 195 "D:\Amit\E-Projects\PIC Projects\CMC\iBUTTON\OneWire.c"
  6333  0006' 0000                NOP ;#
  6334                           	line	196
  6335                           # 196 "D:\Amit\E-Projects\PIC Projects\CMC\iBUTTON\OneWire.c"
  6336  0007' 0000                NOP ;#
  6337                           	line	197
  6338                           # 197 "D:\Amit\E-Projects\PIC Projects\CMC\iBUTTON\OneWire.c"
  6339  0008' 0000                NOP ;#
  6340                           	line	198
  6341                           # 198 "D:\Amit\E-Projects\PIC Projects\CMC\iBUTTON\OneWire.c"
  6342  0009' 0000                NOP ;#
  6343                           	line	199
  6344                           # 199 "D:\Amit\E-Projects\PIC Projects\CMC\iBUTTON\OneWire.c"
  6345  000A' 0B86'               DECFSZ _t,F ;#
  6346                           	line	200
  6347                           # 200 "D:\Amit\E-Projects\PIC Projects\CMC\iBUTTON\OneWire.c"
  6348  000B' 2801'               GOTO DELAY_10US_XZ ;#
  6349                           psect	text274
  6350                           	
  6351  000C'                    l227:	
  6352  000C' 0008               	return
  6353                           	opt stack 0
  6354                           GLOBAL	__end_of_delay_10us
  6355  000D'                    	__end_of_delay_10us:
  6356                           ; =============== function _delay_10us ends ============
  6357                           
  6358                           psect	text275,local,class=CODE,delta=2
  6359                           global __ptext275
  6360  0000'                    __ptext275:
  6361                           	line	202
  6362                           	signat	_delay_10us,88
  6363                           	global	_isr
  6364                           
  6365                           ; *************** function _isr *****************
  6366                           ; Defined at:
  6367                           ;		line 412 in file "D:\Amit\E-Projects\PIC Projects\CMC\iBUTTON\main.c"
  6368                           ; Parameters:    Size  Location     Type
  6369                           ;		None
  6370                           ; Auto vars:     Size  Location     Type
  6371                           ;  i               1    0        unsigned char 
  6372                           ; Return value:  Size  Location     Type
  6373                           ;		None               void
  6374                           ; Registers used:
  6375                           ;		wreg, status,2, status,0
  6376                           ; Tracked objects:
  6377                           ;		On entry : 0/0
  6378                           ;		On exit  : 0/0
  6379                           ;		Unchanged: 0/0
  6380                           ; Data sizes:     COMMON   BANK0   BANK1
  6381                           ;      Locals:         0       4       1
  6382                           ;      Temp:     4
  6383                           ;      Total:    5
  6384                           ; This function calls:
  6385                           ;		Nothing
  6386                           ; This function is called by:
  6387                           ;		Interrupt level 1
  6388                           ; This function uses a non-reentrant model
  6389                           ; 
  6390                           psect	text275
  6391                           	file	"D:\Amit\E-Projects\PIC Projects\CMC\iBUTTON\main.c"
  6392                           	line	412
  6393                           	global	__size_of_isr
  6394  0016                     	__size_of_isr	equ	__end_of_isr-_isr
  6395                           ;main.c: 411: static void interrupt isr(void)
  6396                           ;main.c: 412: {
  6397                           	
  6398  0000'                    _isr:	
  6399                           	opt stack 1
  6400                           ; Regs used in _isr: [wreg+status,2+status,0]
  6401                           psect	intentry,class=CODE,delta=2
  6402                           global __pintentry
  6403  0000'                    __pintentry:
  6404                           global interrupt_function
  6405  0000'                    interrupt_function:
  6406                           	global saved_w
  6407  007F                     	saved_w	set	btemp+1
  6408  0000' 00FF               	movwf	saved_w
  6409  0001' 0803               	movf	status,w
  6410  0002' 1283               	bcf	status, 5	;RP0=0, select bank0
  6411  0003' 1303               	bcf	status, 6	;RP1=0, select bank0
  6412  0004' 0099'              	movwf	(??_isr+0)
  6413  0005' 0804               	movf	fsr0,w
  6414  0006' 009A'              	movwf	(??_isr+1)
  6415  0007' 080A               	movf	pclath,w
  6416  0008' 009B'              	movwf	(??_isr+2)
  6417  0009' 087E               	movf	btemp+0,w
  6418  000A' 009C'              	movwf	(??_isr+3)
  6419  000B' 2800'              	ljmp	_isr
  6420                           psect	text275
  6421                           	line	414
  6422                           	
  6423  0000'                    i1l30001699:	
  6424  0000' 0805               	movf	(5),w	;volatile
  6425                           	
  6426  0001'                    i1l30001700:	
  6427                           	line	415
  6428                           ;main.c: 415: RABIF=0x00;
  6429  0001' 100B               	bcf	(88/8),(88)&7
  6430                           	
  6431  0002'                    i1l30001701:	
  6432                           	line	416
  6433                           ;main.c: 416: IOCA=0x00;
  6434  0002' 1003               	clrc
  6435  0003' 3000               	movlw	0
  6436  0004' 1803               	btfsc	status,0
  6437  0005' 3001               	movlw	1
  6438  0006' 1683               	bsf	status, 5	;RP0=1, select bank1
  6439  0007' 1303               	bcf	status, 6	;RP1=0, select bank1
  6440  0008' 0096               	movwf	(150)^080h
  6441                           	
  6442  0009'                    i1l146:	
  6443  0009' 1283               	bcf	status, 5	;RP0=0, select bank0
  6444  000A' 1303               	bcf	status, 6	;RP1=0, select bank0
  6445  000B' 081C'              	movf	(??_isr+3),w
  6446  000C' 00FE               	movwf	btemp+0
  6447  000D' 081B'              	movf	(??_isr+2),w
  6448  000E' 008A               	movwf	pclath
  6449  000F' 081A'              	movf	(??_isr+1),w
  6450  0010' 0084               	movwf	fsr0
  6451  0011' 0819'              	movf	(??_isr+0),w
  6452  0012' 0083               	movwf	status
  6453  0013' 0EFF               	swapf	saved_w,f
  6454  0014' 0E7F               	swapf	saved_w,w
  6455  0015' 0009               	retfie
  6456                           	opt stack 0
  6457                           GLOBAL	__end_of_isr
  6458  0016'                    	__end_of_isr:
  6459                           ; =============== function _isr ends ============
  6460                           
  6461                           psect	text276,local,class=CODE,delta=2
  6462                           global __ptext276
  6463  0000'                    __ptext276:
  6464                           	line	417
  6465                           	signat	_isr,88
  6466                           	global	btemp
  6467  007E                     	btemp set 07Eh


HI-TECH Software PICC Macro Assembler V9.70 build 5239 
Symbol Table                                                                                   Tue Jun 19 17:54:51 2012

       __end_of_Wait_With_LED_Blink 001C                     ??_ToggleBuzzLED 0000  
                  __size_of_DelayMs 002B                                   l1 0051  
                                 l5 002A                                   l9 0020  
                ReadByteToiButton@n 0001                                   _t 0006  
                                 pc 0002                   __size_of_ClearKey 001D  
                    _ToggleSkipFlag 0005          ?_CheckForiButtonDisconnect 0001  
                                l20 0009                                  l13 000D  
                                _DA 04A5                                  l14 0017  
                                l22 0068                                  l30 002F  
                                _BF 04A0                                  _DC 0019  
                                l51 0049                                  l43 0004  
                                l19 000B                                  l28 0024  
                                l61 0007                                  l54 0019  
                                l62 0003                                  l55 0028  
                                l71 0007                                  l47 004C  
                                l39 0016                                  l56 0017  
                                l72 0003                                  l59 0038  
                                l68 0037                                  l76 0042  
                                l69 002F                                  l93 0031  
                                l85 0041                                  l86 002D  
                                l78 0007                                  l79 0003  
                                _PD 001B                                  _RD 0C60  
                                _UA 04A1                                  _TO 001C  
                                _RW 04A2                                  _WR 0C61  
                                fsr 0004                  CRCCheck@KeyPointer 0003  
                     ??_WriteEEPROM 0000                       _LockOperation 0000  
                    ClearKey@KeyNum 0007                         __pbssCOMMON 0000  
         __end_of_ReadByteToiButton 0039          __end_of_WriteByteToiButton 0030  
                _ConfigureMasterKey 0000  __size_of_CheckForiButtonDisconnect 0002  
                               l110 001C                                 l102 0036  
                               _C1R 08CA                                 l121 00CB  
                               l114 001B                                 _C2R 08D2  
                               l211 0001                                 l115 0015  
                               l212 0034                                 l204 0031  
                               l140 0037                                 l221 0038  
                               l222 0007                                 l215 002F  
                               l143 0033                                 l216 0008  
                               l160 008E                                 l137 00AF  
                               l153 002B                                 l154 0036  
                               l227 000C                                 l155 00D3  
                               l147 0038                                 l164 0050  
                    _EEPROMWriteKey 0000                                 l198 0042  
              ??_EEPROMWriteKeyByte 0000           _CheckForiButtonDisconnect 0000  
                 __size_of_DoorOpen 0069                                 _CKE 04A6  
                               _CKP 00A4                                 _GIE 005F  
                               _BOR 0470                                 _RA0 0028  
                               _RA1 0029                                 _RA2 002A  
                               _RA3 002B                                 _RC0 0038  
                               _RA4 002C                                 _RC1 0039  
                               _RA5 002D                                 _RC2 003A  
                               _RB4 0034                                 _RC3 003B  
                               _RB5 0035                                 _RC4 003C  
                               _RB6 0036                                 _RC5 003D  
                               _RB7 0037                                 _RC6 003E  
                               _RC7 003F                           _ToggleLED 0000  
                DoorOpen@BattStatus 0001                                 _FSR 0004  
                               _PCL 0002                                 _PS0 0408  
                               _PS1 0409                                 _PS2 040A  
                               _RP0 001D                                 _IRP 001F  
                               _RP1 001E                                 _HTS 047A  
                               _SR0 0CF6                                 _SR1 0CF7  
                               _SCS 0478                                 _PSA 040B  
                               _LTS 0479                                 _VR0 08C0  
                               _VR1 08C1                                 _VR2 08C2  
                               _VR3 08C3                                 _POR 0471  
                               _SMP 04A7                           _PowerInit 0000  
                               _VRR 08C5                   __end_of_ToggleLED 0018  
                 __end_of_PowerInit 0052                    Configuration@key 0011  
                   ?_EEPROMWriteKey 0002                                 _isr 0000  
                __size_of_GoToSleep 000E                                 fsr0 0004  
                               indf 0000          Configuration@KeyConfigured 0012  
                      ??_BuzzerBeep 0006                          ?_ToggleLED 0000  
    LockOperation@ShouldCheckConfig 0017                     __size_of_strcmp 002E  
                        ?_PowerInit 0000                       ??_InitiButton 0000  
                  ??_EEPROMWriteKey 0000                 __size_of_delay_10us 000D  
      __end_of_InvalidKeyIndication 0038               __end_of_LockOperation 00D4  
      __size_of_Wait_With_LED_Blink 001C                       ??_ReadiButton 0001  
                __size_of_DoorClose 0017                                _C1IE 046D  
                              _C1IF 006D                                _C2IE 046E  
                              _C2IF 006E                                _C1OE 08CD  
                              _C2OE 08D5                                _C1ON 08CF  
                              _C2ON 08D7                         _TimeCounter 0004  
                              _ADIE 0466                                _ADIF 0066  
                              _ADFM 00FF                                ?_isr 0001  
                              _ADON 00F8                                _CHS0 00FA  
                              _CHS1 00FB                                _CHS2 00FC  
                              _CHS3 00FD                                _EEIE 046C  
                              _EEIF 006C                                _ANS0 08F0  
                              _ANS1 08F1                                _ANS2 08F2  
                              _ANS3 08F3                                _ANS4 08F4  
                              _ANS5 08F5                                _ANS6 08F6  
                              _ANS7 08F7                                _ANS8 08F8  
                              _ANS9 08F9                                _T0IE 005D  
                              _T0IF 005A                                _T0CS 040D  
                              u2010 0037                                u2011 0036  
                              u2020 001C                                u2100 0014  
                              u2021 001B                                u2005 000A  
                              u2101 0013                                u2030 0037  
                              u2110 002F                                u2031 0036  
                              u2111 002E                                u2200 001A  
                              u2120 0019                                u2040 0008  
                              u2201 0019                                u2121 0018  
                              u2210 002A                                u2130 0024  
                              u2050 0025                                u2211 0029  
                              u2131 0023                                u2051 0024  
                              _T0SE 040C                                _IOCA 0096  
                              u2140 002A                                u2060 002C  
                              u2300 0041                                u2220 000B  
                              _IOCB 0116                                u2141 0029  
                              u2061 002B                                u2301 0040  
                              u2221 000A                                u2310 001B  
                              u2070 0021                                u2230 001A  
                              _INDF 0000                                u2311 001A  
                              u2071 0020                                u2215 0026  
                              u2231 0019                                u2320 0006  
                              u2160 001A                                u2080 0014  
                              u2240 0024                                u2321 0005  
                              u2161 0019                                u2081 0013  
                              u2241 0023                                u2330 000D  
                              u2170 0021                                u2090 001B  
                              u1610 0049                                u2250 003A  
                              u2331 000C                                u2155 000A  
                              u2091 001A                                u1611 0048  
                              u2251 0039                                u2340 0032  
                              u2180 002C                                u2260 0049  
                              u1700 009D                                u1620 0019  
            __size_of_EEPROMReadKey 0039                                u2341 0031  
                              u2181 002B                                u1605 0031  
                              u2261 0048                                u1701 009C  
                              u1621 0018                                u2350 003B  
                              u2190 001A                                u2270 005F  
                              u1710 00C3                                u1630 0021  
                              u2351 003A                                u2191 0019  
                              u1615 0045                                u2271 005E  
                              u1711 00C2                                u1631 0020  
                              u2360 003F                                u2280 0004  
                              u1640 0038                                u1800 005E  
                              u1720 0006                                u1801 005D  
                              u1721 0005                                u1650 0054  
                              u1810 0064                                u1730 000C  
                              u1651 0053                                u1580 0006  
                              u1660 005C                                u1820 006C  
                              u1740 002F                                u1900 0013  
                              u1581 0005                                u1661 005B  
                              u1821 006B                                u1901 0012  
                              u1590 000B                                u1670 0068  
                              u1830 008E                                u1750 0037  
                              u1910 001E                                u2295 000A  
                              u1671 0067                                u1831 008D  
                              u1751 0036                                u1911 001D  
                              _PIE1 008C                                u1680 0088  
                              u1840 0097                                u1760 003D  
                              u1920 0031                                _PIE2 008D  
                              u1681 0087                                u1841 0096  
                              u1761 003C                                u1921 0030  
                              u1930 0016                                u1690 0090  
                              u1850 00A9                                u1770 0043  
                              u1691 008F                                u1851 00A8  
                              u1771 0042                                u1940 0021  
                              u1860 00CD                                u1780 004E  
                              u1941 0020                                u1861 00CC  
                              u1781 004D                                u1950 0026  
                              u1870 00D3                                u1790 0057  
                              u1951 0025                                u1871 00D2  
                              u1791 0056                                u1960 002E  
                              u1880 0025                                u1961 002D  
                              u1881 0024                                u1970 001D  
                              u1890 000C                                u1971 001C  
                              u1891 000B                                _PEIE 005E  
                              u1980 0023                                _INTE 005C  
                              u1990 0033                                _INTF 0059  
                              u1991 0032                                _RBIE 005B  
                              _RBIF 0058                                _PCON 008E  
                              _PIR1 000C                                _PIR2 000D  
                              _RBPU 040F                                _VCFG 00FE  
                              _TMR0 0001                                _WCOL 00A7  
                      _ClearAllKeys 0000                                _OSTS 047B  
                              _TUN0 0480                                _TUN1 0481  
                              _TUN2 0482                                _TUN3 0483  
                              _TUN4 0484                                _STOP 04A4  
                              _ZERO 001A                                _WREN 0C62  
                              _WPUA 0095                                _WPUB 0115  
                       ??_ToggleLED 0000              __size_of_ToggleBuzzLED 000C  
                       ??_PowerInit 0000                    __end_of_CRCCheck 0043  
             ReadByteToiButton@temp 0000                     __end_of_DelayMs 002B  
       __size_of_ConfigureMasterKey 0039                                _main 0000  
                              btemp 007E                      ?_Configuration 0014  
              __end_of_ClearAllKeys 0037                  BuzzerBeep@BeepTime 000C  
               BuzzerBeep@LONG_BEEP 000F                                start 0000* 
                   ??_Configuration 0010                   interrupt_function 0000  
            __end_of_EEPROMWriteKey 0043                 start_initialization 0000  
                          clear_ram 0000            EEPROMReadKey@ReadAddress 0000  
                         __pnvBANK0 0000                      Configuration@i 0013  
              ??_WriteByteToiButton 0000                               ??_isr 0019  
                         stringcode 0008                             _CM1CON0 0119  
                           _CM2CON0 011A                             _CM2CON1 011B  
                       _AvailabeKey 0000                               _C1CH0 08C8  
                             _C1CH1 08C9                               _C2CH0 08D0  
                             _C2CH1 08D1                  _EEPROMWriteKeyByte 0000  
                             _C1SEN 0CF5                               _C2REN 0CF4  
                             _C1POL 08CC                               _C2POL 08D4  
                             _C1OUT 08CE                               _C2OUT 08D6  
                             _ADCS0 04FC                               _ADCS1 04FD  
                             _ADCS2 04FE                               ?_main 0019  
               __end_of_AvailabeKey 0032                           __ptext250 0000  
                         __ptext251 0000                           __ptext260 0000  
                         __ptext252 0000                           __ptext261 0000  
                         __ptext253 0000                           __ptext270 0000  
                         __ptext262 0000                           __ptext254 0000  
                         __ptext246 0000                           __ptext271 0000  
                         __ptext263 0000                           __ptext255 0000  
                         __ptext247 0000                           __ptext272 0000  
                         __ptext264 0000                           __ptext256 0000  
                         __ptext248 0000                           __ptext273 0000  
                         __ptext265 0000                           __ptext257 0000  
                         __ptext249 0000                           __ptext274 0000  
                         __ptext266 0000                           __ptext258 0000  
                         __ptext275 0000                           __ptext267 0000  
                         __ptext259 0000                           __ptext276 0000  
                         __ptext268 0000                           __ptext269 0000  
                             _EEADR 010D                               _ANS10 08FA  
                             _EEDAT 010C                               _ANS11 08FB  
               ?_ConfigureMasterKey 0011                               _CARRY 0018  
                             _ANSEL 011E                               _T1CON 0010  
                             _IOCA0 04B0                               _IOCA1 04B1  
                             _IOCA2 04B2                               _IOCA3 04B3  
                             _IOCA4 04B4                               _IOCA5 04B5  
                             _IOCB4 08B4                      AvailabeKey@key 0003  
                             _IOCB5 08B5                               _IOCB6 08B6  
                             _IOCB7 08B7                               _T1GSS 08D9  
                           _T1CKPS0 0084                             _T1CKPS1 0085  
                        _iButtonKey 000E                             ?_strcmp 0000  
                             _IRCF0 047C                               _IRCF1 047D  
                             _IRCF2 047E                               _RABIE 005B  
                             _RABIF 0058                               i1l146 0009  
                         _EEPROMKey 0005                               _RABPU 040F  
                          ??_strcmp 0000                               _OSFIE 046F  
                             _OSFIF 006F                               _VP6EN 08C4  
                             _TMR1H 000F                               _TMR1L 000E  
                             _PORTA 0005                               _PORTB 0006  
                           _T1OSCEN 0083                               _PORTC 0007  
                             _SRCON 019E                               _START 04A3  
                             _PULSR 0CF2                               _PULSS 0CF3  
                             _SSPM0 00A0                               _SSPM1 00A1  
                             _SSPM2 00A2                               _SSPM3 00A3  
                             _TRISA 0085                               _TRISB 0086  
                             _TRISC 0087                               _SSPIE 0463  
                             _SSPIF 0063                               _SSPEN 00A5  
                             _VRCON 0118             ClearAllKeys@Master_Also 0007  
                             _WPUA0 04A8                               _WPUA1 04A9  
                             _WPUA2 04AA                               _WPUA4 04AC  
                             _WPUA5 04AD                               _WPUB4 08AC  
                             _SSPOV 00A6                               _WPUB5 08AD  
                             _WPUB6 08AE                               _WPUB7 08AF  
                             _WRERR 0C63                           __pstrings 0000  
               __size_of_ReadEEPROM 001A       ConfigureMasterKey@PowerOnBeep 0010  
                __size_of_ToggleLED 0018                  __size_of_PowerInit 0052  
                    __pcstackCOMMON 0000                    __end_of_ClearKey 001D  
                           _OSCTUNE 0090              __size_of_Configuration 00CC  
     __size_of_InvalidKeyIndication 0038                ?_Wait_With_LED_Blink 0003  
                        _DataEEAddr 0000                          _DataEEData 0002  
                           _SSPSTAT 0094   __end_of_CheckForiButtonDisconnect 0002  
                     ClearAllKeys@i 0008                               pclath 000A  
                     ?_ClearAllKeys 0003                        ?_AvailabeKey 0005  
             ??_Wait_With_LED_Blink 0000         __size_of_EEPROMWriteKeyByte 0030  
                  __end_of_DoorOpen 0069                             _DelayMs 0000  
                          intlevel1 0000*                  _ReadByteToiButton 0000  
                             status 0003                            ?_DelayMs 0004  
                      ReadiButton@n 0005                           ??_DelayMs 0000  
           __size_of_EEPROMWriteKey 0043                           ClearKey@i 0008  
                     _EEPROMReadKey 0000                __size_of_AvailabeKey 0032  
    EEPROMWriteKeyByte@WriteAddress 0006                       _ToggleBuzzLED 0000  
                           _LowBatt 0002          __size_of_ReadByteToiButton 0039  
               __size_of_BuzzerBeep 004D                  _WriteByteToiButton 0000  
                     __size_of_main 003E                          __pbssBANK0 0000  
             __size_of_ClearAllKeys 0037                            l30001400 0075  
                          l30001401 007A                            l30001402 007C  
                          l30001410 00AF                            l30001411 00B7  
                          l30001403 0082                            l30001500 0017  
                          l30001404 0088                            l30001412 00BD  
                          l30001420 0016                            l30001501 001D  
                          l30001341 0000                            l30001413 00C3  
                          l30001405 0090                            l30001421 001B  
                          l30001510 0003                            l30001502 001F  
                          l30001342 0006                            l30001414 00C5  
                          l30001406 0096                            l30001350 0028  
                          l30001430 0048                            l30001422 0022  
                          l30001503 0023                            l30001407 009D  
                          l30001351 002B                            l30001343 0000  
                          l30001431 004E                            l30001423 0027  
                          l30001415 0000                            l30001600 0012  
                          l30001504 0027                            l30001408 009F  
                          l30001360 003C                            l30001352 002E  
                          l30001344 0006                            l30001440 0073  
                          l30001432 0051                            l30001424 002B  
                          l30001416 0006                            l30001513 0017  
                          l30001601 0019                            l30001505 002D  
                          l30001409 00A7                            l30001361 003D  
                          l30001353 002F                            l30001345 001C  
                          l30001441 007A                            l30001425 002F  
                          l30001417 0008                            l30001506 0000  
                          l30001530 0037                            l30001522 0014  
                          l30001514 001E                            l30001602 0024  
                          l30001610 0014                            l30001370 0014  
                          l30001362 004C                            l30001354 0030  
                          l30001346 001F                            l30001450 00B0  
                          l30001442 0082                            l30001434 0058  
                          l30001426 0030                            l30001418 000C  
                          l30001507 0006                            l30001523 0018  
                          l30001515 0022                            l30001603 0025  
                          l30001611 001A                            l30001371 0015  
                          l30001355 0031                            l30001347 0022  
                          l30001435 005E                            l30001427 0037  
                          l30001443 0088                            l30001419 000F  
                          l30001508 000D                            l30001524 001C  
                          l30001516 0023                            l30001604 002C  
                          l30001540 001B                            l30001532 0000  
                          l30001612 001D                            l30001372 001B  
                          l30001380 0019                            l30001356 0032  
                          l30001348 0025                            l30001452 00B4  
                          l30001444 0090                            l30001436 0064  
                          l30001428 003D                            l30001460 001A  
                          l30001509 000E                            l30001525 0023  
                          l30001517 002D                            l30001541 001F  
                          l30001533 0000                            l30001613 0021  
                          l30001605 0003                            l30001373 001F  
                          l30001381 001B                            l30001357 0035  
                          l30001349 0027                            l30001453 00B5  
                          l30001445 0091                            l30001437 0066  
                          l30001429 0043                            l30001461 001F  
                          l30001550 0000                            l30001630 001A  
                          l30001526 0028                            l30001518 0031  
                          l30001622 0008                            l30001542 0025  
                          l30001534 0004                            l30001614 0026  
                          l30001374 0026                            l30001366 0003  
                          l30001390 0048                            l30001382 0021  
                          l30001358 0038                            l30001454 00CD  
                          l30001446 0097                            l30001438 006C  
                          l30001470 000C                            l30001462 0025  
                          l30001551 0000                            l30001527 002A  
                          l30001519 0000                            l30001623 0010  
                          l30001543 002C                            l30001535 0008  
                          l30001375 002C                            l30001367 0007  
                          l30001631 0000                            l30001391 004A  
                          l30001359 0039                            l30001439 006D  
                          l30001447 009D                            l30001471 0013  
                          l30001463 002A                            l30001455 0000  
                          l30001560 0027                            l30001552 000C  
                          l30001528 002B                            l30001624 0014  
                          l30001536 000A                            l30001616 002D  
                          l30001608 0008                            l30001368 000B  
                          l30001632 0006                            l30001640 0026  
                          l30001392 004E                            l30001376 0000  
                          l30001448 00A9                            l30001472 0018  
                          l30001464 0030                            l30001456 0001  
                          l30001561 002A                            l30001553 000E  
                          l30001529 0031                            l30001625 001A  
                          l30001481 0007                            l30001617 002F  
                          l30001609 0010                            l30001369 0010  
                          l30001641 002B                            l30001633 0000  
                          l30001393 0054                            l30001385 0029  
                          l30001377 0007                            l30001449 00AE  
                          l30001473 001E                            l30001465 0035  
                          l30001457 0008                            l30001562 002C  
                          l30001554 000F                            l30001626 0000  
                          l30001546 002E                            l30001490 0028  
                          l30001482 0012                            l30001570 0001  
                          l30001650 0055                            l30001642 002E  
                          l30001634 0005                            l30001394 005C  
                          l30001386 0034                            l30001378 000C  
                          l30001474 0020                            l30001466 0037  
                          l30001458 000D                            l30001563 002D  
                          l30001555 0012                            l30001627 0007  
                          l30001619 0003                            l30001539 0011  
                          l30001491 002E                            l30001651 0056  
                          l30001643 0034                            l30001635 000B  
                          l30001387 0038                            l30001379 0013  
                          l30001475 0029                            l30001467 003A  
                          l30001459 0016                            l30001564 0030  
                          l30001556 0015                            l30001580 0018  
                          l30001548 0030                            l30001484 0017  
                          l30001660 0003                            l30001572 0005  
                          l30001652 0059                            l30001644 003A  
                          l30001636 000F                            l30001388 003A  
                          l30001468 003B                            l30001565 0033  
                          l30001557 0018                            l30001629 000B  
                          l30001581 001A                            l30001485 001B  
                          l30001573 0014                            l30001653 005F  
                          l30001645 003E                            l30001637 0014  
                          l30001397 005F                            l30001389 0043  
                          l30001477 0031                            l30001469 0003  
                          l30001670 0000                            l30001558 001B  
                          l30001582 001B                            l30001574 0003  
                          l30001494 0030                            l30001486 0021  
                          l30001478 0000                            l30001654 0063  
                          l30001646 0043                            l30001638 001A  
                          l30001398 0068                            l30001671 000C  
                          l30001559 0021                            l30001567 0000  
                          l30001583 001E                            l30001591 001A  
                          l30001487 0026                            l30001663 0017  
                          l30001655 0000                            l30001647 0049  
                          l30001639 001E                            l30001399 006C  
                          l30001672 0013                            l30001680 0008  
                          l30001584 0025                            l30001592 001E  
                          l30001664 001E                            l30001496 0000  
                          l30001656 0008                            l30001648 004D  
                          l30001673 0014                            l30001681 000D  
                          l30001585 0029                            l30001577 000E  
                          l30001593 0024                            l30001665 0022  
                          l30001569 0000                            l30001497 0004  
                          l30001657 000D                            l30001649 0052  
                          l30001674 001B                            l30001682 0010  
                          l30001690 0028                            l30001578 0010  
                          l30001594 002A                            l30001586 0001  
                          l30001666 002D                            l30001498 000A  
                          l30001658 0010                            l30001675 0021  
                          l30001683 0012                            l30001691 002C  
                          l30001579 0014                            l30001667 002E  
                          l30001499 0011                            l30001659 0011  
                          l30001676 0022                            l30001692 0032  
                          l30001684 0003                            l30001668 0035  
                          l30001677 0025                            l30001693 003B  
                          l30001597 002C                            l30001589 0006  
                          l30001669 003B                            l30001678 0000  
                          l30001694 003F                            l30001679 0006  
                          l30001687 0012                            l30001599 0003  
                          l30001688 0019                            l30001697 0041  
                          l30001689 0024                     _InvalidKeyCount 0001  
                       __stringbase 000B              EEPROMReadKey@KeyLength 0001  
               WriteByteToiButton@d 0000                          _delay_10us 0000  
              Wait_With_LED_Blink@k 0001                 WriteByteToiButton@n 0001  
             __end_of_EEPROMReadKey 0039                  __end_of_delay_10us 000D  
                    ?_LockOperation 0018              CRCCheck@KeyAllByteZero 0000  
             __end_of_ToggleBuzzLED 000C                 ?_EEPROMWriteKeyByte 0002  
                ?_ReadByteToiButton 0001                              ??_main 0007  
                   ??_LockOperation 0014                        AvailabeKey@i 0004  
                        __pmaintext 0000                   BuzzerBeep@BeepCnt 000E  
                 BuzzerBeep@BeepNum 000B                         ?_delay_10us 0000  
        __end_of_ConfigureMasterKey 0039                          __pintentry 0000  
       __size_of_WriteByteToiButton 0030                              _C1VREN 08C7  
                          stringdir 000A                              _C2VREN 08C6  
                            _C2SYNC 08D8                            stringtab 0000  
                       CRCCheck@CRC 0001                              _ADCON0 001F  
                            _ADCON1 009F                              _ADRESH 001E  
                            _ADRESL 009E                              _EEADRL 010D  
                            _EEDATA 010C                              _EEDATL 010C  
                            _EECON1 018C                              _EECON2 018D  
                            _ANSELH 011F                              _MC1OUT 08DF  
                            _MC2OUT 08DE                        __end_of_main 003E  
                            _T1GINV 0087                         _WriteEEPROM 0000  
                            _GODONE 00F9                end_of_initialization 0009  
                            _T1SYNC 0082                      LockOperation@i 0015  
                            _INTEDG 040E                              _PCLATH 000A  
                            _INTCON 000B                       __pcstackBANK0 0000  
                     __pcstackBANK1 0000                       ??_AvailabeKey 0002  
                          _CRCCheck 0000                              _SBOREN 0474  
                            _OSCCON 008F                 __end_of_WriteEEPROM 0029  
                            _TMR1GE 0086                              _TMR1IE 0460  
                            _TMR1IF 0060                              _TMR1CS 0081  
                            _OPTION 0081                              _TMR1ON 0080  
                            _WDTCON 0097                           ?_CRCCheck 0001  
                            _WDTPS0 04B9                              _WDTPS1 04BA  
                            _WDTPS2 04BB                              _WDTPS3 04BC  
                            _SSPADD 0093                              _TRISA0 0428  
                            _TRISA1 0429                              _TRISA2 042A  
                            _TRISA3 042B                              _TRISC0 0438  
                            _TRISA4 042C                              _TRISC1 0439  
                            _TRISA5 042D                              _TRISC2 043A  
                            _TRISB4 0434                              _TRISC3 043B  
                            _TRISB5 0435                              _TRISC4 043C  
                            _TRISB6 0436                              _TRISC5 043D  
                            _TRISB7 0437                              _TRISC6 043E  
                            _TRISC7 043F                              _STATUS 0003  
                     _Configuration 0000                            _CRCValue 0000  
                    DelayMs@TimeCnt 0004                              _SSPCON 0014  
                            _SSPBUF 0013                              _SWDTEN 04B8  
                            _ULPWUE 0475                              _SSPMSK 0093  
                    __end_of_strcmp 002E                            DelayMs@i 0000  
                          DelayMs@j 0002                          ??_CRCCheck 0000  
           ReadByteToiButton@i_byte 0002                        ??_delay_10us 0000  
                       _InitiButton 0000              __size_of_LockOperation 00D4  
               __end_of_InitiButton 0035                        __size_of_isr 0016  
                       _ReadiButton 0000           ReadiButton@iButtonPresent 0004  
               ?_WriteByteToiButton 0001                          _ReadEEPROM 0000  
             __end_of_Configuration 00CC                 __end_of_ReadiButton 0032  
                __end_of_ReadEEPROM 001A                        ?_WriteEEPROM 0000  
                         _GoToSleep 0000                          i1l30001700 0001  
                        i1l30001701 0002                             strcmp@i 0002  
                        i1l30001699 0000                   __end_of_GoToSleep 000E  
                           strcmp@x 0001                             strcmp@y 0000  
               ??_ReadByteToiButton 0000                        DELAY_10US_XZ 0001  
                 __size_of_CRCCheck 0043                              _strcmp 0000  
                            clrloop 0001                         __end_of_isr 0016  
                   main@PowerOnBeep 0018                ??_ConfigureMasterKey 0005  
                        ?_GoToSleep 0000                         ?_ReadEEPROM 0000  
              __size_of_WriteEEPROM 0029                     _SlaveConfigured 0004  
                         _DoorClose 0000                   __end_of_DoorClose 0017  
                      ?_InitiButton 0001          __end_of_EEPROMWriteKeyByte 0030  
                            saved_w 007F                           _DoorState 0000  
          InitiButton@PresencePulse 0000          EEPROMWriteKey@WriteAddress 0006  
                          _ClearKey 0000                       __pstringtext1 0000  
                        ?_DoorClose 0000                        ?_ReadiButton 0002  
               _Wait_With_LED_Blink 0000                           ?_ClearKey 0003  
                       ??_GoToSleep 0000                __size_of_InitiButton 0035  
              _InvalidKeyIndication 0000                          _BuzzerBeep 0000  
                        ??_ClearKey 0002                            _DoorOpen 0000  
                __end_of_BuzzerBeep 004D                      ??_ClearAllKeys 0002  
                          _AutoMode 0000                __size_of_ReadiButton 0032  
             ?_InvalidKeyIndication 0007                            _MatchKey 0003  
                         ?_DoorOpen 0002         ??_CheckForiButtonDisconnect 0000  
                       ??_DoorClose 0000                   CRCCheck@LenForCrc 0002  
                      ??_ReadEEPROM 0000                          ??_DoorOpen 0000  
                    ?_EEPROMReadKey 0002              ??_InvalidKeyIndication 0006  
                       ?_BuzzerBeep 000F             EEPROMWriteKey@KeyLength 0007  
                    ?_ToggleBuzzLED 0000                     ??_EEPROMReadKey 0002  
